(dp1
S'files'
p2
(dp3
S'venv_lib_python2_7_site-packages_django_db_models_sql_expressions'
p4
(dp5
S'index'
p6
(dp7
S'html_filename'
p8
S'venv_lib_python2_7_site-packages_django_db_models_sql_expressions.html'
p9
sS'name'
p10
S'venv/lib/python2.7/site-packages/django/db/models/sql/expressions'
p11
sS'nums'
p12
ccopy_reg
_reconstructor
p13
(ccoverage.results
Numbers
p14
c__builtin__
object
p15
NtRp16
(dp17
S'n_files'
p18
I1
sS'n_branches'
p19
I0
sS'n_statements'
p20
I82
sS'n_excluded'
p21
I0
sS'n_partial_branches'
p22
I0
sS'n_missing'
p23
I67
sS'n_missing_branches'
p24
I0
sbssS'hash'
p25
S'4R\xc3\x9eA~\x95}\xe8\x1f\x0b)+l\x12_'
p26
ssS'venv_lib_python2_7_site-packages_django_utils___init__'
p27
(dp28
g6
(dp29
g8
S'venv_lib_python2_7_site-packages_django_utils___init__.html'
p30
sg10
S'venv/lib/python2.7/site-packages/django/utils/__init__'
p31
sg12
g13
(g14
g15
NtRp32
(dp33
g18
I1
sg19
I0
sg20
I0
sg21
I0
sg22
I0
sg23
I0
sg24
I0
sbssg25
S'\xca\xf5\x9f\x7f\x88\xdfa\x831|T\x1d\xbc}\xa5v'
p34
ssS'venv_lib_python2_7_site-packages_django_db_models_fields_related'
p35
(dp36
g6
(dp37
S'html_filename'
p38
S'venv_lib_python2_7_site-packages_django_db_models_fields_related.html'
p39
sS'name'
p40
S'venv/lib/python2.7/site-packages/django/db/models/fields/related'
p41
sS'nums'
p42
g13
(g14
g15
NtRp43
(dp44
g18
I1
sg19
I0
sg20
I840
sg21
I0
sg22
I0
sg23
I458
sg24
I0
sbssg25
S'\xa2\xa0\x1cuEUD{\xecB\x1d\xd4\x8anY '
p45
ssS'venv_lib_python2_7_site-packages_django_template_response'
p46
(dp47
g6
(dp48
g8
S'venv_lib_python2_7_site-packages_django_template_response.html'
p49
sg10
S'venv/lib/python2.7/site-packages/django/template/response'
p50
sg12
g13
(g14
g15
NtRp51
(dp52
g18
I1
sg19
I0
sg20
I72
sg21
I0
sg22
I0
sg23
I50
sg24
I0
sbssg25
S'Y\xbe2#\xdcg\x1e\xa2\xda\x84\xe1\xbf\x15\x9f\xaf\x05'
p53
ssS'venv_lib_python2_7_site-packages_south_logger'
p54
(dp55
g6
(dp56
g8
S'venv_lib_python2_7_site-packages_south_logger.html'
p57
sg10
S'venv/lib/python2.7/site-packages/south/logger'
p58
sg12
g13
(g14
g15
NtRp59
(dp60
g18
I1
sg19
I0
sg20
I26
sg21
I0
sg22
I0
sg23
I14
sg24
I0
sbssg25
S'\x1c6C\xae\x15_B\xb67\x0bz\x8d\x17+c\xc7'
p61
ssS'venv_lib_python2_7_site-packages_south_utils_datetime_utils'
p62
(dp63
g6
(dp64
g8
S'venv_lib_python2_7_site-packages_south_utils_datetime_utils.html'
p65
sg10
S'venv/lib/python2.7/site-packages/south/utils/datetime_utils'
p66
sg12
g13
(g14
g15
NtRp67
(dp68
g18
I1
sg19
I0
sg20
I13
sg21
I0
sg22
I0
sg23
I5
sg24
I0
sbssg25
S'\x0b\x8a6\x9b\x90r\xea#\x14\xaa\x0cwi\xb2*t'
p69
ssS'venv_lib_python2_7_site-packages_django_db_backends_sqlite3_introspection'
p70
(dp71
g6
(dp72
g8
S'venv_lib_python2_7_site-packages_django_db_backends_sqlite3_introspection.html'
p73
sg10
S'venv/lib/python2.7/site-packages/django/db/backends/sqlite3/introspection'
p74
sg12
g13
(g14
g15
NtRp75
(dp76
g18
I1
sg19
I0
sg20
I92
sg21
I0
sg22
I0
sg23
I74
sg24
I0
sbssg25
S'\xd5\xdd\xe6?s\xa3\x87\x96\xd2\x9bg\xa4\xbb\xb3)\x8b'
p77
ssS'venv_lib_python2_7_site-packages_django_contrib_messages_storage___init__'
p78
(dp79
g6
(dp80
g8
S'venv_lib_python2_7_site-packages_django_contrib_messages_storage___init__.html'
p81
sg10
S'venv/lib/python2.7/site-packages/django/contrib/messages/storage/__init__'
p82
sg12
g13
(g14
g15
NtRp83
(dp84
g18
I1
sg19
I0
sg20
I3
sg21
I0
sg22
I0
sg23
I0
sg24
I0
sbssg25
S'V\x94\xb8\x83~\xeb\xbbT\xecJ\x02\xdd*\x08B\xad'
p85
ssS'kybsal___init__'
p86
(dp87
g6
(dp88
g8
S'kybsal___init__.html'
p89
sg10
S'kybsal/__init__'
p90
sg12
g13
(g14
g15
NtRp91
(dp92
g18
I1
sg19
I0
sg20
I0
sg21
I0
sg22
I0
sg23
I0
sg24
I0
sbssg25
S'\xca\xf5\x9f\x7f\x88\xdfa\x831|T\x1d\xbc}\xa5v'
p93
ssS'venv_lib_python2_7_site-packages_django_core_wsgi'
p94
(dp95
g6
(dp96
g8
S'venv_lib_python2_7_site-packages_django_core_wsgi.html'
p97
sg10
S'venv/lib/python2.7/site-packages/django/core/wsgi'
p98
sg12
g13
(g14
g15
NtRp99
(dp100
g18
I1
sg19
I0
sg20
I3
sg21
I0
sg22
I0
sg23
I1
sg24
I0
sbssg25
S'\x05@\x04,\x8d\xbb\xc9\x97\xb6\xcc;\x06\t\xbb\xb7\xfb'
p101
ssS'kybsal_slave___init__'
p102
(dp103
g6
(dp104
g8
S'kybsal_slave___init__.html'
p105
sg10
S'kybsal/slave/__init__'
p106
sg12
g13
(g14
g15
NtRp107
(dp108
g18
I1
sg19
I0
sg20
I0
sg21
I0
sg22
I0
sg23
I0
sg24
I0
sbssg25
S'\xca\xf5\x9f\x7f\x88\xdfa\x831|T\x1d\xbc}\xa5v'
p109
ssS'venv_lib_python2_7_site-packages_django_contrib_auth_signals'
p110
(dp111
g6
(dp112
g8
S'venv_lib_python2_7_site-packages_django_contrib_auth_signals.html'
p113
sg10
S'venv/lib/python2.7/site-packages/django/contrib/auth/signals'
p114
sg12
g13
(g14
g15
NtRp115
(dp116
g18
I1
sg19
I0
sg20
I4
sg21
I0
sg22
I0
sg23
I0
sg24
I0
sbssg25
S'\x89\x9c\xaa;\xc3\xa0\x92\xe0\x14HX\x86\x17\\\xf6z'
p117
ssS'venv_lib_python2_7_site-packages_django_db___init__'
p118
(dp119
g6
(dp120
g8
S'venv_lib_python2_7_site-packages_django_db___init__.html'
p121
sg10
S'venv/lib/python2.7/site-packages/django/db/__init__'
p122
sg12
g13
(g14
g15
NtRp123
(dp124
g18
I1
sg19
I0
sg20
I45
sg21
I0
sg22
I0
sg23
I20
sg24
I0
sbssg25
S'i\xc7\xf0\r\x82`5\xc2(\x8a*\x8b\xe7\xdb2x'
p125
ssS'venv_lib_python2_7_site-packages_django_core_files_uploadhandler'
p126
(dp127
g6
(dp128
g8
S'venv_lib_python2_7_site-packages_django_core_files_uploadhandler.html'
p129
sg10
S'venv/lib/python2.7/site-packages/django/core/files/uploadhandler'
p130
sg12
g13
(g14
g15
NtRp131
(dp132
g18
I1
sg19
I0
sg20
I76
sg21
I0
sg22
I0
sg23
I40
sg24
I0
sbssg25
S'\x1ah\xd0\xcd\xde\x14b\xf9\x81H\xf6h\xc0\x8d\x94\xe3'
p133
ssS'venv_lib_python2_7_site-packages_django_core_files___init__'
p134
(dp135
g6
(dp136
g8
S'venv_lib_python2_7_site-packages_django_core_files___init__.html'
p137
sg10
S'venv/lib/python2.7/site-packages/django/core/files/__init__'
p138
sg12
g13
(g14
g15
NtRp139
(dp140
g18
I1
sg19
I0
sg20
I1
sg21
I0
sg22
I0
sg23
I0
sg24
I0
sbssg25
S'\x93\xf8\xbd[\xbcl\x80\x88}\xdb\xd6\xec\xb5{\x15\xb3'
p141
ssS'venv_lib_python2_7_site-packages_django_core_management_sql'
p142
(dp143
g6
(dp144
g8
S'venv_lib_python2_7_site-packages_django_core_management_sql.html'
p145
sg10
S'venv/lib/python2.7/site-packages/django/core/management/sql'
p146
sg12
g13
(g14
g15
NtRp147
(dp148
g18
I1
sg19
I0
sg20
I126
sg21
I0
sg22
I0
sg23
I87
sg24
I0
sbssg25
S'Kh\xe3\xd7P"`\x9d\x8e\x85%\xf2%U\xaf\x83'
p149
ssS'venv_lib_python2_7_site-packages_django_templatetags_static'
p150
(dp151
g6
(dp152
g8
S'venv_lib_python2_7_site-packages_django_templatetags_static.html'
p153
sg10
S'venv/lib/python2.7/site-packages/django/templatetags/static'
p154
sg12
g13
(g14
g15
NtRp155
(dp156
g18
I1
sg19
I0
sg20
I68
sg21
I0
sg22
I0
sg23
I47
sg24
I0
sbssg25
S'\xe5\xc73\x11\xc5\xe3\x90A/1\xc5\x86O/\x8e7'
p157
ssS'venv_lib_python2_7_site-packages_django_utils_functional'
p158
(dp159
g6
(dp160
g8
S'venv_lib_python2_7_site-packages_django_utils_functional.html'
p161
sg10
S'venv/lib/python2.7/site-packages/django/utils/functional'
p162
sg12
g13
(g14
g15
NtRp163
(dp164
g18
I1
sg19
I0
sg20
I222
sg21
I0
sg22
I0
sg23
I95
sg24
I0
sbssg25
S'\x04\x95\x8b\x8d\xe01\t\x86\xcf\xe4\x9bp\xf6\xa7\t}'
p165
ssS'venv_lib_python2_7_site-packages_django_core_exceptions'
p166
(dp167
g6
(dp168
g8
S'venv_lib_python2_7_site-packages_django_core_exceptions.html'
p169
sg10
S'venv/lib/python2.7/site-packages/django/core/exceptions'
p170
sg12
g13
(g14
g15
NtRp171
(dp172
g18
I1
sg19
I0
sg20
I76
sg21
I0
sg22
I0
sg23
I40
sg24
I0
sbssg25
S"(}/8r'\xc6\x101\xa5\xe5\xbeS\xe3Q\x8f"
p173
ssS'venv_lib_python2_7_site-packages_django_test_testcases'
p174
(dp175
g6
(dp176
g38
S'venv_lib_python2_7_site-packages_django_test_testcases.html'
p177
sg40
S'venv/lib/python2.7/site-packages/django/test/testcases'
p178
sg42
g13
(g14
g15
NtRp179
(dp180
g18
I1
sg19
I0
sg20
I609
sg21
I0
sg22
I0
sg23
I425
sg24
I0
sbssg25
S'-=\xff\x8e\x14ONQ^v\x95\xcdn\x9c\x90\xaa'
p181
ssS'venv_lib_python2_7_site-packages_south_management_commands_syncdb'
p182
(dp183
g6
(dp184
g8
S'venv_lib_python2_7_site-packages_south_management_commands_syncdb.html'
p185
sg10
S'venv/lib/python2.7/site-packages/south/management/commands/syncdb'
p186
sg12
g13
(g14
g15
NtRp187
(dp188
g18
I1
sg19
I0
sg20
I67
sg21
I0
sg22
I0
sg23
I9
sg24
I0
sbssg25
S'\x80\xc5\xc093\xd7\xaaA:"t\xeb\x89\x91\xef\xbf'
p189
ssS'venv_lib_python2_7_site-packages_django_contrib_staticfiles___init__'
p190
(dp191
g6
(dp192
g8
S'venv_lib_python2_7_site-packages_django_contrib_staticfiles___init__.html'
p193
sg10
S'venv/lib/python2.7/site-packages/django/contrib/staticfiles/__init__'
p194
sg12
g13
(g14
g15
NtRp195
(dp196
g18
I1
sg19
I0
sg20
I0
sg21
I0
sg22
I0
sg23
I0
sg24
I0
sbssg25
S'\xca\xf5\x9f\x7f\x88\xdfa\x831|T\x1d\xbc}\xa5v'
p197
ssS'venv_lib_python2_7_site-packages_django_dispatch_saferef'
p198
(dp199
g6
(dp200
g8
S'venv_lib_python2_7_site-packages_django_dispatch_saferef.html'
p201
sg10
S'venv/lib/python2.7/site-packages/django/dispatch/saferef'
p202
sg12
g13
(g14
g15
NtRp203
(dp204
g18
I1
sg19
I0
sg20
I84
sg21
I0
sg22
I0
sg23
I29
sg24
I0
sbssg25
S'=\x11\xdeI\xa2\xf1O]\x19\xcb\x9c\xadi2\xabN'
p205
ssS'venv_lib_python2_7_site-packages_django_contrib_contenttypes_models'
p206
(dp207
g6
(dp208
g8
S'venv_lib_python2_7_site-packages_django_contrib_contenttypes_models.html'
p209
sg10
S'venv/lib/python2.7/site-packages/django/contrib/contenttypes/models'
p210
sg12
g13
(g14
g15
NtRp211
(dp212
g18
I1
sg19
I0
sg20
I96
sg21
I0
sg22
I0
sg23
I49
sg24
I0
sbssg25
S'IBc\x9e`A\xe3\xa9\xa2\xaf\x1d\x94IAR-'
p213
ssS'venv_lib_python2_7_site-packages_django_http___init__'
p214
(dp215
g6
(dp216
g8
S'venv_lib_python2_7_site-packages_django_http___init__.html'
p217
sg10
S'venv/lib/python2.7/site-packages/django/http/__init__'
p218
sg12
g13
(g14
g15
NtRp219
(dp220
g18
I1
sg19
I0
sg20
I4
sg21
I0
sg22
I0
sg23
I0
sg24
I0
sbssg25
S'\xcb\xb2\xa7\x92\x99\x0eH\x82@\xf7\xc5\xef\xf2\xd4l`'
p221
ssS'venv_lib_python2_7_site-packages_django_contrib_messages___init__'
p222
(dp223
g6
(dp224
g8
S'venv_lib_python2_7_site-packages_django_contrib_messages___init__.html'
p225
sg10
S'venv/lib/python2.7/site-packages/django/contrib/messages/__init__'
p226
sg12
g13
(g14
g15
NtRp227
(dp228
g18
I1
sg19
I0
sg20
I3
sg21
I0
sg22
I0
sg23
I0
sg24
I0
sbssg25
S"\xf4\x03\xf0-\x85\x9aN\xb8x'\xb8C\xe6\xcc\xc7M"
p229
ssS'venv_lib_python2_7_site-packages_south_migration_base'
p230
(dp231
g6
(dp232
g8
S'venv_lib_python2_7_site-packages_south_migration_base.html'
p233
sg10
S'venv/lib/python2.7/site-packages/south/migration/base'
p234
sg12
g13
(g14
g15
NtRp235
(dp236
g18
I1
sg19
I0
sg20
I276
sg21
I0
sg22
I0
sg23
I167
sg24
I0
sbssg25
S'\xee3\xa2\xd6>BC\x9a\xee\xb0K\xf0\x846\xb8\xa9'
p237
ssS'venv_lib_python2_7_site-packages_django_dispatch_dispatcher'
p238
(dp239
g6
(dp240
g8
S'venv_lib_python2_7_site-packages_django_dispatch_dispatcher.html'
p241
sg10
S'venv/lib/python2.7/site-packages/django/dispatch/dispatcher'
p242
sg12
g13
(g14
g15
NtRp243
(dp244
g18
I1
sg19
I0
sg20
I122
sg21
I0
sg22
I0
sg23
I32
sg24
I0
sbssg25
S'1QK\xe5\xdf\xce?\xee|\x93!\xc0\x1b\xea\xa9\xe9'
p245
ssS'venv_lib_python2_7_site-packages_south_hacks_django_1_0'
p246
(dp247
g6
(dp248
g8
S'venv_lib_python2_7_site-packages_south_hacks_django_1_0.html'
p249
sg10
S'venv/lib/python2.7/site-packages/south/hacks/django_1_0'
p250
sg12
g13
(g14
g15
NtRp251
(dp252
g18
I1
sg19
I0
sg20
I50
sg21
I0
sg22
I0
sg23
I20
sg24
I0
sbssg25
S'\xa2\xd00\x83\xcd.\xcd\x10\x8d\xda\xbb\xdbj{\xd7\x9f'
p253
ssS'venv_lib_python2_7_site-packages_django_utils_tzinfo'
p254
(dp255
g6
(dp256
g8
S'venv_lib_python2_7_site-packages_django_utils_tzinfo.html'
p257
sg10
S'venv/lib/python2.7/site-packages/django/utils/tzinfo'
p258
sg12
g13
(g14
g15
NtRp259
(dp260
g18
I1
sg19
I0
sg20
I54
sg21
I0
sg22
I0
sg23
I35
sg24
I0
sbssg25
S'\xd7\xc3\xe6\xb8\xeaF\xf3X\xd8Y\x1a\x17\xcc\xa6\x9d\xcc'
p261
ssS'kybsal_timer___init__'
p262
(dp263
g6
(dp264
g8
S'kybsal_timer___init__.html'
p265
sg10
S'kybsal/timer/__init__'
p266
sg12
g13
(g14
g15
NtRp267
(dp268
g18
I1
sg19
I0
sg20
I0
sg21
I0
sg22
I0
sg23
I0
sg24
I0
sbssg25
S'\xca\xf5\x9f\x7f\x88\xdfa\x831|T\x1d\xbc}\xa5v'
p269
ssS'venv_lib_python2_7_site-packages_django_conf___init__'
p270
(dp271
g6
(dp272
g8
S'venv_lib_python2_7_site-packages_django_conf___init__.html'
p273
sg10
S'venv/lib/python2.7/site-packages/django/conf/__init__'
p274
sg12
g13
(g14
g15
NtRp275
(dp276
g18
I1
sg19
I0
sg20
I101
sg21
I0
sg22
I0
sg23
I32
sg24
I0
sbssg25
S"UhU\x132\xcc\xb9f\xba'\x99\xbc=;\xb2\x96"
p277
ssS'venv_lib_python2_7_site-packages_django_http_request'
p278
(dp279
g6
(dp280
g8
S'venv_lib_python2_7_site-packages_django_http_request.html'
p281
sg10
S'venv/lib/python2.7/site-packages/django/http/request'
p282
sg12
g13
(g14
g15
NtRp283
(dp284
g18
I1
sg19
I0
sg20
I287
sg21
I0
sg22
I0
sg23
I216
sg24
I0
sbssg25
S'0={\x9db\x8d\\\x1ds\xc5\x92_\x8c\xc2c\x81'
p285
ssS'venv_lib_python2_7_site-packages_django_core_cache_backends_db'
p286
(dp287
g6
(dp288
g8
S'venv_lib_python2_7_site-packages_django_core_cache_backends_db.html'
p289
sg10
S'venv/lib/python2.7/site-packages/django/core/cache/backends/db'
p290
sg12
g13
(g14
g15
NtRp291
(dp292
g18
I1
sg19
I0
sg20
I136
sg21
I0
sg22
I0
sg23
I110
sg24
I0
sbssg25
S'r\x89\xb9\xd3i\x1b\xa2\xde\xf5\xf4b3v\xa6\xe6Y'
p293
ssS'venv_lib_python2_7_site-packages_django_utils_translation_trans_real'
p294
(dp295
g6
(dp296
g8
S'venv_lib_python2_7_site-packages_django_utils_translation_trans_real.html'
p297
sg10
S'venv/lib/python2.7/site-packages/django/utils/translation/trans_real'
p298
sg12
g13
(g14
g15
NtRp299
(dp300
g18
I1
sg19
I0
sg20
I411
sg21
I0
sg22
I0
sg23
I267
sg24
I0
sbssg25
S'\x8b\xca\x19\xbd\x9c\xf2(\x1d\xd0\x85\r\x1c\x01\x0c\xc15'
p301
ssS'venv_lib_python2_7_site-packages_django_core_handlers___init__'
p302
(dp303
g6
(dp304
g8
S'venv_lib_python2_7_site-packages_django_core_handlers___init__.html'
p305
sg10
S'venv/lib/python2.7/site-packages/django/core/handlers/__init__'
p306
sg12
g13
(g14
g15
NtRp307
(dp308
g18
I1
sg19
I0
sg20
I0
sg21
I0
sg22
I0
sg23
I0
sg24
I0
sbssg25
S'\xca\xf5\x9f\x7f\x88\xdfa\x831|T\x1d\xbc}\xa5v'
p309
ssS'venv_lib_python2_7_site-packages_django_core_files_locks'
p310
(dp311
g6
(dp312
g8
S'venv_lib_python2_7_site-packages_django_core_files_locks.html'
p313
sg10
S'venv/lib/python2.7/site-packages/django/core/files/locks'
p314
sg12
g13
(g14
g15
NtRp315
(dp316
g18
I1
sg19
I0
sg20
I40
sg21
I0
sg22
I0
sg23
I23
sg24
I0
sbssg25
S'\xe4\xfe\xbaH\xd9\xb2i_\\\xd6\xd8\xfd\r\x16\xf8\x1a'
p317
ssS'venv_lib_python2_7_site-packages_django_contrib_auth___init__'
p318
(dp319
g6
(dp320
g8
S'venv_lib_python2_7_site-packages_django_contrib_auth___init__.html'
p321
sg10
S'venv/lib/python2.7/site-packages/django/contrib/auth/__init__'
p322
sg12
g13
(g14
g15
NtRp323
(dp324
g18
I1
sg19
I0
sg20
I86
sg21
I0
sg22
I0
sg23
I61
sg24
I0
sbssg25
S'9\xe3\xdf\x1bO\x9d\xb7\xb0W\xeb\xdb"A\xb6\x972'
p325
ssS'venv_lib_python2_7_site-packages_django_contrib_admin_actions'
p326
(dp327
g6
(dp328
g8
S'venv_lib_python2_7_site-packages_django_contrib_admin_actions.html'
p329
sg10
S'venv/lib/python2.7/site-packages/django/contrib/admin/actions'
p330
sg12
g13
(g14
g15
NtRp331
(dp332
g18
I1
sg19
I0
sg20
I35
sg21
I0
sg22
I0
sg23
I25
sg24
I0
sbssg25
S'\xbby\xcf\x97\xa0A\x842\x18\xd8\x87/#\xedDi'
p333
ssS'venv_lib_python2_7_site-packages_django_contrib_admin_helpers'
p334
(dp335
g6
(dp336
g8
S'venv_lib_python2_7_site-packages_django_contrib_admin_helpers.html'
p337
sg10
S'venv/lib/python2.7/site-packages/django/contrib/admin/helpers'
p338
sg12
g13
(g14
g15
NtRp339
(dp340
g18
I1
sg19
I0
sg20
I243
sg21
I0
sg22
I0
sg23
I178
sg24
I0
sbssg25
S'\xa0\x1e\xb1\xeb\x89\x94\xf4\x89\x07\t\xfd\x17\x0b\x94\x05\x07'
p341
ssS'venv_lib_python2_7_site-packages_django_conf_locale_en___init__'
p342
(dp343
g6
(dp344
g8
S'venv_lib_python2_7_site-packages_django_conf_locale_en___init__.html'
p345
sg10
S'venv/lib/python2.7/site-packages/django/conf/locale/en/__init__'
p346
sg12
g13
(g14
g15
NtRp347
(dp348
g18
I1
sg19
I0
sg20
I0
sg21
I0
sg22
I0
sg23
I0
sg24
I0
sbssg25
S'\xca\xf5\x9f\x7f\x88\xdfa\x831|T\x1d\xbc}\xa5v'
p349
ssS'venv_lib_python2_7_site-packages_django_core___init__'
p350
(dp351
g6
(dp352
g8
S'venv_lib_python2_7_site-packages_django_core___init__.html'
p353
sg10
S'venv/lib/python2.7/site-packages/django/core/__init__'
p354
sg12
g13
(g14
g15
NtRp355
(dp356
g18
I1
sg19
I0
sg20
I0
sg21
I0
sg22
I0
sg23
I0
sg24
I0
sbssg25
S'\xca\xf5\x9f\x7f\x88\xdfa\x831|T\x1d\xbc}\xa5v'
p357
ssS'venv_lib_python2_7_site-packages_django_utils_unittest___init__'
p358
(dp359
g6
(dp360
g8
S'venv_lib_python2_7_site-packages_django_utils_unittest___init__.html'
p361
sg10
S'venv/lib/python2.7/site-packages/django/utils/unittest/__init__'
p362
sg12
g13
(g14
g15
NtRp363
(dp364
g18
I1
sg19
I0
sg20
I23
sg21
I0
sg22
I0
sg23
I17
sg24
I0
sbssg25
S'\xa8N\x8f\x06\xf1O\x1f\x89\xbe\x96\x13\xdd\xdf;\x89s'
p365
ssS'venv_lib_python2_7_site-packages_django_db_models_sql_where'
p366
(dp367
g6
(dp368
g38
S'venv_lib_python2_7_site-packages_django_db_models_sql_where.html'
p369
sg40
S'venv/lib/python2.7/site-packages/django/db/models/sql/where'
p370
sg42
g13
(g14
g15
NtRp371
(dp372
g18
I1
sg19
I0
sg20
I230
sg21
I0
sg22
I0
sg23
I98
sg24
I0
sbssg25
S'\xa2C\xb8\x93)\xbcV\xf7\xb1R\xb3\x06\xdf\xfb]\x8c'
p373
ssS'venv_lib_python2_7_site-packages_django_core_mail_utils'
p374
(dp375
g6
(dp376
g8
S'venv_lib_python2_7_site-packages_django_core_mail_utils.html'
p377
sg10
S'venv/lib/python2.7/site-packages/django/core/mail/utils'
p378
sg12
g13
(g14
g15
NtRp379
(dp380
g18
I1
sg19
I0
sg20
I9
sg21
I0
sg22
I0
sg23
I4
sg24
I0
sbssg25
S'1;F\xfb\xb1\rUh=1\x8b}\x9c3\xc3\xbf'
p381
ssS'venv_lib_python2_7_site-packages_django_core_validators'
p382
(dp383
g6
(dp384
g8
S'venv_lib_python2_7_site-packages_django_core_validators.html'
p385
sg10
S'venv/lib/python2.7/site-packages/django/core/validators'
p386
sg12
g13
(g14
g15
NtRp387
(dp388
g18
I1
sg19
I0
sg20
I133
sg21
I0
sg22
I0
sg23
I58
sg24
I0
sbssg25
S'\xef?\x8fd5e\xcf\xc8a\x98 N\xc1\xf8i\xaa'
p389
ssS'venv_lib_python2_7_site-packages_django_utils_html'
p390
(dp391
g6
(dp392
g8
S'venv_lib_python2_7_site-packages_django_utils_html.html'
p393
sg10
S'venv/lib/python2.7/site-packages/django/utils/html'
p394
sg12
g13
(g14
g15
NtRp395
(dp396
g18
I1
sg19
I0
sg20
I185
sg21
I0
sg22
I0
sg23
I130
sg24
I0
sbssg25
S'O9{\x0f~\xd1\x12\\\xf6WW\xf1.\xff\x81\xdc'
p397
ssS'venv_lib_python2_7_site-packages_django_utils_datetime_safe'
p398
(dp399
g6
(dp400
g8
S'venv_lib_python2_7_site-packages_django_utils_datetime_safe.html'
p401
sg10
S'venv/lib/python2.7/site-packages/django/utils/datetime_safe'
p402
sg12
g13
(g14
g15
NtRp403
(dp404
g18
I1
sg19
I0
sg20
I56
sg21
I0
sg22
I0
sg23
I42
sg24
I0
sbssg25
S'\xce\xd7J\x80\x7fi\xb5\xc2\x830\xe4\x10\x06@\xd5H'
p405
ssS'kybsal_settings'
p406
(dp407
g6
(dp408
g8
S'kybsal_settings.html'
p409
sg10
S'kybsal/settings'
p410
sg12
g13
(g14
g15
NtRp411
(dp412
g18
I1
sg19
I0
sg20
I27
sg21
I0
sg22
I0
sg23
I2
sg24
I0
sbssg25
S'V\x91\xea\xc4\xad\xba#\x90\x8a\xa2\xeeY.\xd1\x18\xd6'
p413
ssS'venv_lib_python2_7_site-packages_django_test___init__'
p414
(dp415
g6
(dp416
g8
S'venv_lib_python2_7_site-packages_django_test___init__.html'
p417
sg10
S'venv/lib/python2.7/site-packages/django/test/__init__'
p418
sg12
g13
(g14
g15
NtRp419
(dp420
g18
I1
sg19
I0
sg20
I3
sg21
I0
sg22
I0
sg23
I0
sg24
I0
sbssg25
S'"\x05`\xc0z\xbe\xc3\xcc%\x11z\x17\x1a\x15\x89\xef'
p421
ssS'venv_lib_python2_7_site-packages_django_shortcuts___init__'
p422
(dp423
g6
(dp424
g8
S'venv_lib_python2_7_site-packages_django_shortcuts___init__.html'
p425
sg10
S'venv/lib/python2.7/site-packages/django/shortcuts/__init__'
p426
sg12
g13
(g14
g15
NtRp427
(dp428
g18
I1
sg19
I0
sg20
I63
sg21
I0
sg22
I0
sg23
I48
sg24
I0
sbssg25
S'F\xbe\x9e+</TI\x9b\x01y\xcfs\x89f:'
p429
ssS'venv_lib_python2_7_site-packages_django_contrib_staticfiles_management___init__'
p430
(dp431
g6
(dp432
g8
S'venv_lib_python2_7_site-packages_django_contrib_staticfiles_management___init__.html'
p433
sg10
S'venv/lib/python2.7/site-packages/django/contrib/staticfiles/management/__init__'
p434
sg12
g13
(g14
g15
NtRp435
(dp436
g18
I1
sg19
I0
sg20
I0
sg21
I0
sg22
I0
sg23
I0
sg24
I0
sbssg25
S'\xca\xf5\x9f\x7f\x88\xdfa\x831|T\x1d\xbc}\xa5v'
p437
ssS'venv_lib_python2_7_site-packages_django_test_runner'
p438
(dp439
g6
(dp440
g38
S'venv_lib_python2_7_site-packages_django_test_runner.html'
p441
sg40
S'venv/lib/python2.7/site-packages/django/test/runner'
p442
sg42
g13
(g14
g15
NtRp443
(dp444
g18
I1
sg19
I0
sg20
I150
sg21
I0
sg22
I0
sg23
I25
sg24
I0
sbssg25
S'\xe0e>Z\xf6\xd7\xe0C-~A\xa5D\xceI|'
p445
ssS'venv_lib_python2_7_site-packages_django_utils_crypto'
p446
(dp447
g6
(dp448
g8
S'venv_lib_python2_7_site-packages_django_utils_crypto.html'
p449
sg10
S'venv/lib/python2.7/site-packages/django/utils/crypto'
p450
sg12
g13
(g14
g15
NtRp451
(dp452
g18
I1
sg19
I0
sg20
I75
sg21
I0
sg22
I0
sg23
I53
sg24
I0
sbssg25
S'\x94\xee\xcc\xf7\xb7\xbc\xb2e\xa7*\xda+pYj\xb5'
p453
ssS'venv_lib_python2_7_site-packages_django_core_files_utils'
p454
(dp455
g6
(dp456
g8
S'venv_lib_python2_7_site-packages_django_core_files_utils.html'
p457
sg10
S'venv/lib/python2.7/site-packages/django/core/files/utils'
p458
sg12
g13
(g14
g15
NtRp459
(dp460
g18
I1
sg19
I0
sg20
I19
sg21
I0
sg22
I0
sg23
I1
sg24
I0
sbssg25
S'\xf9\x11l\xd6u\x8d\xd2\xe3g\x05F\xd6{F\x15\xdc'
p461
ssS'venv_lib_python2_7_site-packages_django_test_signals'
p462
(dp463
g6
(dp464
g8
S'venv_lib_python2_7_site-packages_django_test_signals.html'
p465
sg10
S'venv/lib/python2.7/site-packages/django/test/signals'
p466
sg12
g13
(g14
g15
NtRp467
(dp468
g18
I1
sg19
I0
sg20
I50
sg21
I0
sg22
I0
sg23
I35
sg24
I0
sbssg25
S'ge\x9f\x82 \xec\x0c\x05\x1b\x13\x1ah\x1fYor'
p469
ssS'venv_lib_python2_7_site-packages_django_utils_synch'
p470
(dp471
g6
(dp472
g8
S'venv_lib_python2_7_site-packages_django_utils_synch.html'
p473
sg10
S'venv/lib/python2.7/site-packages/django/utils/synch'
p474
sg12
g13
(g14
g15
NtRp475
(dp476
g18
I1
sg19
I0
sg20
I59
sg21
I0
sg22
I0
sg23
I41
sg24
I0
sbssg25
S'\x1d\x7f\x84\xd0\xf3\xbc\xb6\xf4\x9c\xa7\x06c\xf5A\xc70'
p477
ssS'venv_lib_python2_7_site-packages_django_core_management_base'
p478
(dp479
g6
(dp480
g8
S'venv_lib_python2_7_site-packages_django_core_management_base.html'
p481
sg10
S'venv/lib/python2.7/site-packages/django/core/management/base'
p482
sg12
g13
(g14
g15
NtRp483
(dp484
g18
I1
sg19
I0
sg20
I144
sg21
I0
sg22
I0
sg23
I53
sg24
I0
sbssg25
S'\xe9\x97\x7f\x02\xd1\x95\x99T\xd9\x950\x13l\x8b, '
p485
ssS'venv_lib_python2_7_site-packages_django_contrib_auth_hashers'
p486
(dp487
g6
(dp488
g8
S'venv_lib_python2_7_site-packages_django_contrib_auth_hashers.html'
p489
sg10
S'venv/lib/python2.7/site-packages/django/contrib/auth/hashers'
p490
sg12
g13
(g14
g15
NtRp491
(dp492
g18
I1
sg19
I0
sg20
I247
sg21
I0
sg22
I0
sg23
I160
sg24
I0
sbssg25
S'\xb3r\x99\xda\x0bx\xd7\xce\xcdT\xa3\x03\xa0\x97?('
p493
ssS'venv_lib_python2_7_site-packages_django_template___init__'
p494
(dp495
g6
(dp496
g8
S'venv_lib_python2_7_site-packages_django_template___init__.html'
p497
sg10
S'venv/lib/python2.7/site-packages/django/template/__init__'
p498
sg12
g13
(g14
g15
NtRp499
(dp500
g18
I1
sg19
I0
sg20
I6
sg21
I0
sg22
I0
sg23
I0
sg24
I0
sbssg25
S'\xc2\n\xeb\xe1\x06\xdfW\rFf\x0f\xe9\x95\x8e[#'
p501
ssS'venv_lib_python2_7_site-packages_django_core_handlers_wsgi'
p502
(dp503
g6
(dp504
g8
S'venv_lib_python2_7_site-packages_django_core_handlers_wsgi.html'
p505
sg10
S'venv/lib/python2.7/site-packages/django/core/handlers/wsgi'
p506
sg12
g13
(g14
g15
NtRp507
(dp508
g18
I1
sg19
I0
sg20
I154
sg21
I0
sg22
I0
sg23
I113
sg24
I0
sbssg25
S'\x98\x8d\xdf\xf7\x0c\xebX\xe4\xf5\x96\xdb!\xc7\xfc\x01a'
p509
ssS'venv_lib_python2_7_site-packages_django_db_models_query'
p510
(dp511
g6
(dp512
g38
S'venv_lib_python2_7_site-packages_django_db_models_query.html'
p513
sg40
S'venv/lib/python2.7/site-packages/django/db/models/query'
p514
sg42
g13
(g14
g15
NtRp515
(dp516
g18
I1
sg19
I0
sg20
I889
sg21
I0
sg22
I0
sg23
I603
sg24
I0
sbssg25
S'9\x8f\xd0\x80\x9f)\t\x8d8\xbc_\xec\xfd\xcd\xa5\xa9'
p517
ssS'venv_lib_python2_7_site-packages_django_db_models_sql_query'
p518
(dp519
g6
(dp520
g38
S'venv_lib_python2_7_site-packages_django_db_models_sql_query.html'
p521
sg40
S'venv/lib/python2.7/site-packages/django/db/models/sql/query'
p522
sg42
g13
(g14
g15
NtRp523
(dp524
g18
I1
sg19
I0
sg20
I936
sg21
I0
sg22
I0
sg23
I526
sg24
I0
sbssg25
S'!{\xd5\xa1\x19\xeb\xd6\xa3NQ\x9f\x87\x06\x0c\x07\xe1'
p525
ssS'venv_lib_python2_7_site-packages_django_http_multipartparser'
p526
(dp527
g6
(dp528
g8
S'venv_lib_python2_7_site-packages_django_http_multipartparser.html'
p529
sg10
S'venv/lib/python2.7/site-packages/django/http/multipartparser'
p530
sg12
g13
(g14
g15
NtRp531
(dp532
g18
I1
sg19
I0
sg20
I345
sg21
I0
sg22
I0
sg23
I292
sg24
I0
sbssg25
S'\xc2\xaf\xbb\x19m\xc3*K\xad!\x88)"\xd9\x0e\xfc'
p533
ssS'venv_lib_python2_7_site-packages_django_template_loaders_app_directories'
p534
(dp535
g6
(dp536
g8
S'venv_lib_python2_7_site-packages_django_template_loaders_app_directories.html'
p537
sg10
S'venv/lib/python2.7/site-packages/django/template/loaders/app_directories'
p538
sg12
g13
(g14
g15
NtRp539
(dp540
g18
I1
sg19
I0
sg20
I43
sg21
I0
sg22
I0
sg23
I18
sg24
I0
sbssg25
S"\xd5\x15\x06\xd8\xd3\x12a2\xcf2\xb6Z\n'\xf6\xf3"
p541
ssS'venv_lib_python2_7_site-packages_django_template_loaders___init__'
p542
(dp543
g6
(dp544
g8
S'venv_lib_python2_7_site-packages_django_template_loaders___init__.html'
p545
sg10
S'venv/lib/python2.7/site-packages/django/template/loaders/__init__'
p546
sg12
g13
(g14
g15
NtRp547
(dp548
g18
I1
sg19
I0
sg20
I0
sg21
I0
sg22
I0
sg23
I0
sg24
I0
sbssg25
S'\xca\xf5\x9f\x7f\x88\xdfa\x831|T\x1d\xbc}\xa5v'
p549
ssS'venv_lib_python2_7_site-packages_django_test_html'
p550
(dp551
g6
(dp552
g8
S'venv_lib_python2_7_site-packages_django_test_html.html'
p553
sg10
S'venv/lib/python2.7/site-packages/django/test/html'
p554
sg12
g13
(g14
g15
NtRp555
(dp556
g18
I1
sg19
I0
sg20
I167
sg21
I0
sg22
I0
sg23
I128
sg24
I0
sbssg25
S'\x06\xa8a\xd2-a\x8b\xeb\xff\xae\x87>\xd0\xdf\xd4\xa7'
p557
ssS'venv_lib_python2_7_site-packages_django_middleware_csrf'
p558
(dp559
g6
(dp560
g8
S'venv_lib_python2_7_site-packages_django_middleware_csrf.html'
p561
sg10
S'venv/lib/python2.7/site-packages/django/middleware/csrf'
p562
sg12
g13
(g14
g15
NtRp563
(dp564
g18
I1
sg19
I0
sg20
I81
sg21
I0
sg22
I0
sg23
I56
sg24
I0
sbssg25
S'\x03G\x84\xe3\xde5\xa7\xa9\x10k\x8c\xa1G|\xdc\xba'
p565
ssS'venv_lib_python2_7_site-packages_django_contrib_admin_templatetags_admin_urls'
p566
(dp567
g6
(dp568
g8
S'venv_lib_python2_7_site-packages_django_contrib_admin_templatetags_admin_urls.html'
p569
sg10
S'venv/lib/python2.7/site-packages/django/contrib/admin/templatetags/admin_urls'
p570
sg12
g13
(g14
g15
NtRp571
(dp572
g18
I1
sg19
I0
sg20
I35
sg21
I0
sg22
I0
sg23
I25
sg24
I0
sbssg25
S";\x83'K.0A\xa4\xe4\x02\xd4-\x03\xe7l\x0f"
p573
ssS'venv_lib_python2_7_site-packages_django_db_models_fields_subclassing'
p574
(dp575
g6
(dp576
g8
S'venv_lib_python2_7_site-packages_django_db_models_fields_subclassing.html'
p577
sg10
S'venv/lib/python2.7/site-packages/django/db/models/fields/subclassing'
p578
sg12
g13
(g14
g15
NtRp579
(dp580
g18
I1
sg19
I0
sg20
I21
sg21
I0
sg22
I0
sg23
I14
sg24
I0
sbssg25
S'\xfd\xd2YH\xdb\x1a6<\xf8\xa0\xbc\x99fr\x0f\x8a'
p581
ssS'venv_lib_python2_7_site-packages_django_utils_ipv6'
p582
(dp583
g6
(dp584
g8
S'venv_lib_python2_7_site-packages_django_utils_ipv6.html'
p585
sg10
S'venv/lib/python2.7/site-packages/django/utils/ipv6'
p586
sg12
g13
(g14
g15
NtRp587
(dp588
g18
I1
sg19
I0
sg20
I108
sg21
I0
sg22
I0
sg23
I99
sg24
I0
sbssg25
S'\xe3d\xb6\xc6G\xbc\x05=\x85j\xee~\xfb\xd2g\xda'
p589
ssS'venv_lib_python2_7_site-packages_django_core_cache_backends_locmem'
p590
(dp591
g6
(dp592
g8
S'venv_lib_python2_7_site-packages_django_core_cache_backends_locmem.html'
p593
sg10
S'venv/lib/python2.7/site-packages/django/core/cache/backends/locmem'
p594
sg12
g13
(g14
g15
NtRp595
(dp596
g18
I1
sg19
I0
sg20
I118
sg21
I0
sg22
I0
sg23
I92
sg24
I0
sbssg25
S'\x10\xd8\x84L\xcf\xf7~\xb6s\xd6P@cB\xab1'
p597
ssS'venv_lib_python2_7_site-packages_django_contrib_staticfiles_views'
p598
(dp599
g6
(dp600
g8
S'venv_lib_python2_7_site-packages_django_contrib_staticfiles_views.html'
p601
sg10
S'venv/lib/python2.7/site-packages/django/contrib/staticfiles/views'
p602
sg12
g13
(g14
g15
NtRp603
(dp604
g18
I1
sg19
I0
sg20
I19
sg21
I0
sg22
I0
sg23
I10
sg24
I0
sbssg25
S"\xb9\xf1o~'!\xf5\xc4Y\xa1\x16\xb7\x84]\x16\x9e"
p605
ssS'venv_lib_python2_7_site-packages_django_core_handlers_base'
p606
(dp607
g6
(dp608
g38
S'venv_lib_python2_7_site-packages_django_core_handlers_base.html'
p609
sg40
S'venv/lib/python2.7/site-packages/django/core/handlers/base'
p610
sg42
g13
(g14
g15
NtRp611
(dp612
g18
I1
sg19
I0
sg20
I159
sg21
I0
sg22
I0
sg23
I133
sg24
I0
sbssg25
S'q\xa3\xb3\xf4\x8a\xd1)\xf9z\xa8\xe66\xe3 \xef/'
p613
ssS'venv_lib_python2_7_site-packages_django_utils_translation___init__'
p614
(dp615
g6
(dp616
g8
S'venv_lib_python2_7_site-packages_django_utils_translation___init__.html'
p617
sg10
S'venv/lib/python2.7/site-packages/django/utils/translation/__init__'
p618
sg12
g13
(g14
g15
NtRp619
(dp620
g18
I1
sg19
I0
sg20
I110
sg21
I0
sg22
I0
sg23
I48
sg24
I0
sbssg25
S'\xe3\xcd6\x18\x99[O\x11\xb3S\xde\x91\xdd:\xcbx'
p621
ssS'venv_lib_python2_7_site-packages_django_db_models_fields___init__'
p622
(dp623
g6
(dp624
g38
S'venv_lib_python2_7_site-packages_django_db_models_fields___init__.html'
p625
sg40
S'venv/lib/python2.7/site-packages/django/db/models/fields/__init__'
p626
sg42
g13
(g14
g15
NtRp627
(dp628
g18
I1
sg19
I0
sg20
I849
sg21
I0
sg22
I0
sg23
I396
sg24
I0
sbssg25
S'\xce4\xd9\x1arU\xa7a\x89u\x7f,\x0c.%\xe3'
p629
ssS'venv_lib_python2_7_site-packages_django_core_files_uploadedfile'
p630
(dp631
g6
(dp632
g8
S'venv_lib_python2_7_site-packages_django_core_files_uploadedfile.html'
p633
sg10
S'venv/lib/python2.7/site-packages/django/core/files/uploadedfile'
p634
sg12
g13
(g14
g15
NtRp635
(dp636
g18
I1
sg19
I0
sg20
I60
sg21
I0
sg22
I0
sg23
I32
sg24
I0
sbssg25
S'Wl\xd0S\xd7\xc1;\x1f\xce\x1dj\xd7\n5\xd9\x80'
p637
ssS'venv_lib_python2_7_site-packages_django_forms_widgets'
p638
(dp639
g6
(dp640
g8
S'venv_lib_python2_7_site-packages_django_forms_widgets.html'
p641
sg10
S'venv/lib/python2.7/site-packages/django/forms/widgets'
p642
sg12
g13
(g14
g15
NtRp643
(dp644
g18
I1
sg19
I0
sg20
I522
sg21
I0
sg22
I0
sg23
I323
sg24
I0
sbssg25
S'\xf4\xdb\xbf-Wp\x0b\xa9\xff\xc7\x12\xb3-\xe5\xe1N'
p645
ssS'venv_lib_python2_7_site-packages_django_contrib_admin_models'
p646
(dp647
g6
(dp648
g8
S'venv_lib_python2_7_site-packages_django_contrib_admin_models.html'
p649
sg10
S'venv/lib/python2.7/site-packages/django/contrib/admin/models'
p650
sg12
g13
(g14
g15
NtRp651
(dp652
g18
I1
sg19
I0
sg20
I57
sg21
I0
sg22
I0
sg23
I21
sg24
I0
sbssg25
S'\xf9\xe4mx\x95\x0c(\xf3\xbb\x1ce\x97\xfet<i'
p653
ssS'venv_lib_python2_7_site-packages_django_contrib_sessions_backends_db'
p654
(dp655
g6
(dp656
g8
S'venv_lib_python2_7_site-packages_django_contrib_sessions_backends_db.html'
p657
sg10
S'venv/lib/python2.7/site-packages/django/contrib/sessions/backends/db'
p658
sg12
g13
(g14
g15
NtRp659
(dp660
g18
I1
sg19
I0
sg20
I53
sg21
I0
sg22
I0
sg23
I38
sg24
I0
sbssg25
S"\xc6\xa2\x16T\xb8\xdf\x10\xc7\xe9p'B+\xb1\x97e"
p661
ssS'venv_lib_python2_7_site-packages_bootstrap3_models'
p662
(dp663
g6
(dp664
g8
S'venv_lib_python2_7_site-packages_bootstrap3_models.html'
p665
sg10
S'venv/lib/python2.7/site-packages/bootstrap3/models'
p666
sg12
g13
(g14
g15
NtRp667
(dp668
g18
I1
sg19
I0
sg20
I0
sg21
I0
sg22
I0
sg23
I0
sg24
I0
sbssg25
S'\xbf\x9cA\xef\x9d\xd8\xe3\xab\xd0\xa2\xc4\x12\xf0\xc45\xe5'
p669
ssS'kybsal_spritz___init__'
p670
(dp671
g6
(dp672
g8
S'kybsal_spritz___init__.html'
p673
sg10
S'kybsal/spritz/__init__'
p674
sg12
g13
(g14
g15
NtRp675
(dp676
g18
I1
sg19
I0
sg20
I0
sg21
I0
sg22
I0
sg23
I0
sg24
I0
sbssg25
S'\xca\xf5\x9f\x7f\x88\xdfa\x831|T\x1d\xbc}\xa5v'
p677
ssS'venv_lib_python2_7_site-packages_django_core_paginator'
p678
(dp679
g6
(dp680
g8
S'venv_lib_python2_7_site-packages_django_core_paginator.html'
p681
sg10
S'venv/lib/python2.7/site-packages/django/core/paginator'
p682
sg12
g13
(g14
g15
NtRp683
(dp684
g18
I1
sg19
I0
sg20
I90
sg21
I0
sg22
I0
sg23
I57
sg24
I0
sbssg25
S'\xba\x166\xa1`>\xf5\x99\x83\xc2\xbeN\xf9\xf0\xca;'
p685
ssS'venv_lib_python2_7_site-packages_django_forms_formsets'
p686
(dp687
g6
(dp688
g8
S'venv_lib_python2_7_site-packages_django_forms_formsets.html'
p689
sg10
S'venv/lib/python2.7/site-packages/django/forms/formsets'
p690
sg12
g13
(g14
g15
NtRp691
(dp692
g18
I1
sg19
I0
sg20
I214
sg21
I0
sg22
I0
sg23
I155
sg24
I0
sbssg25
S'\x05*\x85\xe6{c\xf3WX\xb5\x12$]&J\xe0'
p693
ssS'venv_lib_python2_7_site-packages_django_utils_html_parser'
p694
(dp695
g6
(dp696
g8
S'venv_lib_python2_7_site-packages_django_utils_html_parser.html'
p697
sg10
S'venv/lib/python2.7/site-packages/django/utils/html_parser'
p698
sg12
g13
(g14
g15
NtRp699
(dp700
g18
I1
sg19
I0
sg20
I82
sg21
I0
sg22
I0
sg23
I74
sg24
I0
sbssg25
S'\x87d\xc4\xd5\x1d\x83\x0c\xb2e#g\xbe1\xa2\x07\xa9'
p701
ssS'venv_lib_python2_7_site-packages_django_template_defaultfilters'
p702
(dp703
g6
(dp704
g8
S'venv_lib_python2_7_site-packages_django_template_defaultfilters.html'
p705
sg10
S'venv/lib/python2.7/site-packages/django/template/defaultfilters'
p706
sg12
g13
(g14
g15
NtRp707
(dp708
g18
I1
sg19
I0
sg20
I454
sg21
I0
sg22
I0
sg23
I324
sg24
I0
sbssg25
S'\xd0&\x04\xbf{\x92\x84\xb7\x84)\xd37a\xca\xd6\xf2'
p709
ssS'venv_lib_python2_7_site-packages_django_db_models_options'
p710
(dp711
g6
(dp712
g8
S'venv_lib_python2_7_site-packages_django_db_models_options.html'
p713
sg10
S'venv/lib/python2.7/site-packages/django/db/models/options'
p714
sg12
g13
(g14
g15
NtRp715
(dp716
g18
I1
sg19
I0
sg20
I348
sg21
I0
sg22
I0
sg23
I96
sg24
I0
sbssg25
S'\x0f&\xa0\xc3\xf0\xccM\x994\x92n\n_\xb6\xd24'
p717
ssS'venv_lib_python2_7_site-packages_django_contrib_staticfiles_storage'
p718
(dp719
g6
(dp720
g8
S'venv_lib_python2_7_site-packages_django_contrib_staticfiles_storage.html'
p721
sg10
S'venv/lib/python2.7/site-packages/django/contrib/staticfiles/storage'
p722
sg12
g13
(g14
g15
NtRp723
(dp724
g18
I1
sg19
I0
sg20
I183
sg21
I0
sg22
I0
sg23
I144
sg24
I0
sbssg25
S'\x80,^\xbd\xcf\xc7\xbf\x17x\x84\x89\xf0\xf0\xb8%\x93'
p725
ssS'venv_lib_python2_7_site-packages_django_template_loader'
p726
(dp727
g6
(dp728
g8
S'venv_lib_python2_7_site-packages_django_template_loader.html'
p729
sg10
S'venv/lib/python2.7/site-packages/django/template/loader'
p730
sg12
g13
(g14
g15
NtRp731
(dp732
g18
I1
sg19
I0
sg20
I97
sg21
I0
sg22
I0
sg23
I73
sg24
I0
sbssg25
S'\xbeh\x879Mt\xae\xb4\xbek0,>s\xb8%'
p733
ssS'venv_lib_python2_7_site-packages_django_db_models_sql_aggregates'
p734
(dp735
g6
(dp736
g8
S'venv_lib_python2_7_site-packages_django_db_models_sql_aggregates.html'
p737
sg10
S'venv/lib/python2.7/site-packages/django/db/models/sql/aggregates'
p738
sg12
g13
(g14
g15
NtRp739
(dp740
g18
I1
sg19
I0
sg20
I61
sg21
I0
sg22
I0
sg23
I30
sg24
I0
sbssg25
S'\xc4\x1d\xd6\r\xc7_N\x8aU\xa8\xb2\x17y\x06\x89_'
p741
ssS'venv_lib_python2_7_site-packages_django_utils_timezone'
p742
(dp743
g6
(dp744
S'html_filename'
p745
S'venv_lib_python2_7_site-packages_django_utils_timezone.html'
p746
sS'name'
p747
S'venv/lib/python2.7/site-packages/django/utils/timezone'
p748
sS'nums'
p749
g13
(g14
g15
NtRp750
(dp751
g18
I1
sg19
I0
sg20
I124
sg21
I0
sg22
I0
sg23
I64
sg24
I0
sbssg25
S'\xd2\xd6"C\xb30\xe9\xfa\xfe\t\xe3\xc5\x80\xa9\xd3\xaf'
p752
ssS'venv_lib_python2_7_site-packages_pytz_exceptions'
p753
(dp754
g6
(dp755
g8
S'venv_lib_python2_7_site-packages_pytz_exceptions.html'
p756
sg10
S'venv/lib/python2.7/site-packages/pytz/exceptions'
p757
sg12
g13
(g14
g15
NtRp758
(dp759
g18
I1
sg19
I0
sg20
I6
sg21
I0
sg22
I0
sg23
I0
sg24
I0
sbssg25
S'\xb1z\nA\xebV\xdewl2\xcd\xec\xd1\xf4\xf1g'
p760
ssS'venv_lib_python2_7_site-packages_django_utils_module_loading'
p761
(dp762
g6
(dp763
g8
S'venv_lib_python2_7_site-packages_django_utils_module_loading.html'
p764
sg10
S'venv/lib/python2.7/site-packages/django/utils/module_loading'
p765
sg12
g13
(g14
g15
NtRp766
(dp767
g18
I1
sg19
I0
sg20
I66
sg21
I0
sg22
I0
sg23
I51
sg24
I0
sbssg25
S'Uc|\x91\x12\xe4\xdf\x17\xad\xc5\x9b\x86N2\x82\x9a'
p768
ssS'venv_lib_python2_7_site-packages_django_forms_forms'
p769
(dp770
g6
(dp771
g8
S'venv_lib_python2_7_site-packages_django_forms_forms.html'
p772
sg10
S'venv/lib/python2.7/site-packages/django/forms/forms'
p773
sg12
g13
(g14
g15
NtRp774
(dp775
g18
I1
sg19
I0
sg20
I290
sg21
I0
sg22
I0
sg23
I210
sg24
I0
sbssg25
S'\xec\x10u\x98\xc5S\xdd~C\x9c\xf5*\xeaP\xb9\xe9'
p776
ssS'venv_lib_python2_7_site-packages_django_middleware_cache'
p777
(dp778
g6
(dp779
g8
S'venv_lib_python2_7_site-packages_django_middleware_cache.html'
p780
sg10
S'venv/lib/python2.7/site-packages/django/middleware/cache'
p781
sg12
g13
(g14
g15
NtRp782
(dp783
g18
I1
sg19
I0
sg20
I96
sg21
I0
sg22
I0
sg23
I82
sg24
I0
sbssg25
S'\xd4T\x08\xc9\x9d-\x995\x90\x9cXmH\xb6\xdai'
p784
ssS'venv_lib_python2_7_site-packages_django_template_loaders_cached'
p785
(dp786
g6
(dp787
g8
S'venv_lib_python2_7_site-packages_django_template_loaders_cached.html'
p788
sg10
S'venv/lib/python2.7/site-packages/django/template/loaders/cached'
p789
sg12
g13
(g14
g15
NtRp790
(dp791
g18
I1
sg19
I0
sg20
I42
sg21
I0
sg22
I0
sg23
I31
sg24
I0
sbssg25
S'_\x15~\xf5X\xf1\x00\x89\xc2\xd2\xbe\xbd\x93?\xdaK'
p792
ssS'venv_lib_python2_7_site-packages_django_middleware___init__'
p793
(dp794
g6
(dp795
g8
S'venv_lib_python2_7_site-packages_django_middleware___init__.html'
p796
sg10
S'venv/lib/python2.7/site-packages/django/middleware/__init__'
p797
sg12
g13
(g14
g15
NtRp798
(dp799
g18
I1
sg19
I0
sg20
I0
sg21
I0
sg22
I0
sg23
I0
sg24
I0
sbssg25
S'\xca\xf5\x9f\x7f\x88\xdfa\x831|T\x1d\xbc}\xa5v'
p800
ssS'venv_lib_python2_7_site-packages_django_db_models_sql_constants'
p801
(dp802
g6
(dp803
g8
S'venv_lib_python2_7_site-packages_django_db_models_sql_constants.html'
p804
sg10
S'venv/lib/python2.7/site-packages/django/db/models/sql/constants'
p805
sg12
g13
(g14
g15
NtRp806
(dp807
g18
I1
sg19
I0
sg20
I10
sg21
I0
sg22
I0
sg23
I0
sg24
I0
sbssg25
S'\xb5DP\xdaM\xcf\x15R\x18\xe5~"\xea\xbc\xf2\xb2'
p808
ssS'venv_lib_python2_7_site-packages_django_core_urlresolvers'
p809
(dp810
g6
(dp811
g38
S'venv_lib_python2_7_site-packages_django_core_urlresolvers.html'
p812
sg40
S'venv/lib/python2.7/site-packages/django/core/urlresolvers'
p813
sg42
g13
(g14
g15
NtRp814
(dp815
g18
I1
sg19
I0
sg20
I377
sg21
I0
sg22
I0
sg23
I299
sg24
I0
sbssg25
S"&*'9($>\xae\r\x12e\xc4\x19l\xf8\t"
p816
ssS'venv_lib_python2_7_site-packages_django_contrib_messages_api'
p817
(dp818
g6
(dp819
g8
S'venv_lib_python2_7_site-packages_django_contrib_messages_api.html'
p820
sg10
S'venv/lib/python2.7/site-packages/django/contrib/messages/api'
p821
sg12
g13
(g14
g15
NtRp822
(dp823
g18
I1
sg19
I0
sg20
I34
sg21
I0
sg22
I0
sg23
I20
sg24
I0
sbssg25
S'9\x99\x8a)\xc55\n\x9c\xe2\x9c[C\x0b\xf9\xfd\xf9'
p824
ssS'venv_lib_python2_7_site-packages_django_db_models_manager'
p825
(dp826
g6
(dp827
g745
S'venv_lib_python2_7_site-packages_django_db_models_manager.html'
p828
sg747
S'venv/lib/python2.7/site-packages/django/db/models/manager'
p829
sg749
g13
(g14
g15
NtRp830
(dp831
g18
I1
sg19
I0
sg20
I170
sg21
I0
sg22
I0
sg23
I38
sg24
I0
sbssg25
S'>%\xb8\xf0\xc9\xdd,l\xa3\xd5c\\&}]\xed'
p832
ssS'venv_lib_python2_7_site-packages_django_views_debug'
p833
(dp834
g6
(dp835
g8
S'venv_lib_python2_7_site-packages_django_views_debug.html'
p836
sg10
S'venv/lib/python2.7/site-packages/django/views/debug'
p837
sg12
g13
(g14
g15
NtRp838
(dp839
g18
I1
sg19
I0
sg20
I291
sg21
I0
sg22
I0
sg23
I242
sg24
I0
sbssg25
S'(\x9a"o\xe1\x07\x9f\xec\xb5\x0c\x96\xbaM\xe3\x19\xa1'
p840
ssS'venv_lib_python2_7_site-packages_django_utils_decorators'
p841
(dp842
g6
(dp843
g8
S'venv_lib_python2_7_site-packages_django_utils_decorators.html'
p844
sg10
S'venv/lib/python2.7/site-packages/django/utils/decorators'
p845
sg12
g13
(g14
g15
NtRp846
(dp847
g18
I1
sg19
I0
sg20
I62
sg21
I0
sg22
I0
sg23
I34
sg24
I0
sbssg25
S'\x1cy\x99(0\xdb\xec\x97\xe5 \xeb\xf7\xa0\xd0\x94\xfb'
p848
ssS'venv_lib_python2_7_site-packages_django_contrib_sites_models'
p849
(dp850
g6
(dp851
g8
S'venv_lib_python2_7_site-packages_django_contrib_sites_models.html'
p852
sg10
S'venv/lib/python2.7/site-packages/django/contrib/sites/models'
p853
sg12
g13
(g14
g15
NtRp854
(dp855
g18
I1
sg19
I0
sg20
I65
sg21
I0
sg22
I0
sg23
I32
sg24
I0
sbssg25
S'\x94s\xa6-\xd7\x985al\xd5\x9dh\xb7l\xcb-'
p856
ssS'venv_lib_python2_7_site-packages_django_http_response'
p857
(dp858
g6
(dp859
g8
S'venv_lib_python2_7_site-packages_django_http_response.html'
p860
sg10
S'venv/lib/python2.7/site-packages/django/http/response'
p861
sg12
g13
(g14
g15
NtRp862
(dp863
g18
I1
sg19
I0
sg20
I242
sg21
I0
sg22
I0
sg23
I149
sg24
I0
sbssg25
S'\xa6,NnQP\xa1\xdf\x1b\x0e\x94|\xdb\xd1\xe6\xba'
p864
ssS'venv_lib_python2_7_site-packages_django_utils_log'
p865
(dp866
g6
(dp867
g8
S'venv_lib_python2_7_site-packages_django_utils_log.html'
p868
sg10
S'venv/lib/python2.7/site-packages/django/utils/log'
p869
sg12
g13
(g14
g15
NtRp870
(dp871
g18
I1
sg19
I0
sg20
I61
sg21
I0
sg22
I0
sg23
I34
sg24
I0
sbssg25
S'Y\xb0\x80\xba\xbb\x11\x8a\xea\xe7\\\x98b\xa0\x9e;6'
p872
ssS'venv_lib_python2_7_site-packages_django_core_signing'
p873
(dp874
g6
(dp875
g8
S'venv_lib_python2_7_site-packages_django_core_signing.html'
p876
sg10
S'venv/lib/python2.7/site-packages/django/core/signing'
p877
sg12
g13
(g14
g15
NtRp878
(dp879
g18
I1
sg19
I0
sg20
I86
sg21
I0
sg22
I0
sg23
I54
sg24
I0
sbssg25
S"T\xea\xe3\x07i\xf5\x125g\x00\x8d\n'\xb5\xcf@"
p880
ssS'venv_lib_python2_7_site-packages_django_conf_global_settings'
p881
(dp882
g6
(dp883
g8
S'venv_lib_python2_7_site-packages_django_conf_global_settings.html'
p884
sg10
S'venv/lib/python2.7/site-packages/django/conf/global_settings'
p885
sg12
g13
(g14
g15
NtRp886
(dp887
g18
I1
sg19
I0
sg20
I121
sg21
I0
sg22
I0
sg23
I0
sg24
I0
sbssg25
S'Z`\xf5\xd2\x12\xe3\x85\xfe}k\x01\x90x\x1bm\xfe'
p888
ssS'venv_lib_python2_7_site-packages_django_forms_fields'
p889
(dp890
g6
(dp891
g8
S'venv_lib_python2_7_site-packages_django_forms_fields.html'
p892
sg10
S'venv/lib/python2.7/site-packages/django/forms/fields'
p893
sg12
g13
(g14
g15
NtRp894
(dp895
g18
I1
sg19
I0
sg20
I642
sg21
I0
sg22
I0
sg23
I428
sg24
I0
sbssg25
S'\x1bT\x84\xd3\xe7\xc2\xcd\x9b\xc1\x90)^\x82m\xe9\xa4'
p896
ssS'venv_lib_python2_7_site-packages_django_contrib_messages_models'
p897
(dp898
g6
(dp899
g8
S'venv_lib_python2_7_site-packages_django_contrib_messages_models.html'
p900
sg10
S'venv/lib/python2.7/site-packages/django/contrib/messages/models'
p901
sg12
g13
(g14
g15
NtRp902
(dp903
g18
I1
sg19
I0
sg20
I0
sg21
I0
sg22
I0
sg23
I0
sg24
I0
sbssg25
S'@\xce\xa8\x1c\x878\x17\xf9\x8fE\xaa\xd8\x99\xe1\x85\x93'
p904
ssS'venv_lib_python2_7_site-packages_south_db_sqlite3'
p905
(dp906
g6
(dp907
g8
S'venv_lib_python2_7_site-packages_south_db_sqlite3.html'
p908
sg10
S'venv/lib/python2.7/site-packages/south/db/sqlite3'
p909
sg12
g13
(g14
g15
NtRp910
(dp911
g18
I1
sg19
I0
sg20
I144
sg21
I0
sg22
I0
sg23
I120
sg24
I0
sbssg25
S'\xf6E\xd8I\xd47?m\x18\x19\xa0\x85qb\xe4y'
p912
ssS'venv_lib_python2_7_site-packages_django_template_loader_tags'
p913
(dp914
g6
(dp915
g8
S'venv_lib_python2_7_site-packages_django_template_loader_tags.html'
p916
sg10
S'venv/lib/python2.7/site-packages/django/template/loader_tags'
p917
sg12
g13
(g14
g15
NtRp918
(dp919
g18
I1
sg19
I0
sg20
I177
sg21
I0
sg22
I0
sg23
I138
sg24
I0
sbssg25
S'\x1a\x10\xde\xe8\xcdbf\\u\xd0R\xb4\xc0\x82\x0b3'
p920
ssS'venv_lib_python2_7_site-packages_django_contrib_staticfiles_templatetags_staticfiles'
p921
(dp922
g6
(dp923
g8
S'venv_lib_python2_7_site-packages_django_contrib_staticfiles_templatetags_staticfiles.html'
p924
sg10
S'venv/lib/python2.7/site-packages/django/contrib/staticfiles/templatetags/staticfiles'
p925
sg12
g13
(g14
g15
NtRp926
(dp927
g18
I1
sg19
I0
sg20
I12
sg21
I0
sg22
I0
sg23
I4
sg24
I0
sbssg25
S'Yr\xd1@\xa6D\xd8\xc6\x1a\xe1\x8e\x06\xe6ue|'
p928
ssS'venv_lib_python2_7_site-packages_django_db_models_expressions'
p929
(dp930
g6
(dp931
g8
S'venv_lib_python2_7_site-packages_django_db_models_expressions.html'
p932
sg10
S'venv/lib/python2.7/site-packages/django/db/models/expressions'
p933
sg12
g13
(g14
g15
NtRp934
(dp935
g18
I1
sg19
I0
sg20
I94
sg21
I0
sg22
I0
sg23
I50
sg24
I0
sbssg25
S'\x9fV-\x87T\xd5S\xe7)\xc5@\x05 \xe4\x85$'
p936
ssS'venv_lib_python2_7_site-packages_django_http_utils'
p937
(dp938
g6
(dp939
g8
S'venv_lib_python2_7_site-packages_django_http_utils.html'
p940
sg10
S'venv/lib/python2.7/site-packages/django/http/utils'
p941
sg12
g13
(g14
g15
NtRp942
(dp943
g18
I1
sg19
I0
sg20
I43
sg21
I0
sg22
I0
sg23
I39
sg24
I0
sbssg25
S'9u\xbeG\x83\xfe\x1cu,\xaf\xdb\x19\xb0\x12l\xc3'
p944
ssS'venv_lib_python2_7_site-packages_django_contrib_staticfiles_utils'
p945
(dp946
g6
(dp947
g8
S'venv_lib_python2_7_site-packages_django_contrib_staticfiles_utils.html'
p948
sg10
S'venv/lib/python2.7/site-packages/django/contrib/staticfiles/utils'
p949
sg12
g13
(g14
g15
NtRp950
(dp951
g18
I1
sg19
I0
sg20
I37
sg21
I0
sg22
I0
sg23
I30
sg24
I0
sbssg25
S'\xb6M\xd2B\xf1\x9e\x87\xba\r|\xc6\xed\x1c\xdb0\x88'
p952
ssS'venv_lib_python2_7_site-packages_south_hacks___init__'
p953
(dp954
g6
(dp955
g8
S'venv_lib_python2_7_site-packages_south_hacks___init__.html'
p956
sg10
S'venv/lib/python2.7/site-packages/south/hacks/__init__'
p957
sg12
g13
(g14
g15
NtRp958
(dp959
g18
I1
sg19
I0
sg20
I2
sg21
I0
sg22
I0
sg23
I0
sg24
I0
sbssg25
S'O\xc0\x12\x9a\xff\xec\xb3\x9dV9\xee\xf3\x0f>\xb5*'
p960
ssS'venv_lib_python2_7_site-packages_django_contrib_sessions_management___init__'
p961
(dp962
g6
(dp963
g8
S'venv_lib_python2_7_site-packages_django_contrib_sessions_management___init__.html'
p964
sg10
S'venv/lib/python2.7/site-packages/django/contrib/sessions/management/__init__'
p965
sg12
g13
(g14
g15
NtRp966
(dp967
g18
I1
sg19
I0
sg20
I0
sg21
I0
sg22
I0
sg23
I0
sg24
I0
sbssg25
S'\xca\xf5\x9f\x7f\x88\xdfa\x831|T\x1d\xbc}\xa5v'
p968
ssS'venv_lib_python2_7_site-packages_django_contrib_admin_util'
p969
(dp970
g6
(dp971
g8
S'venv_lib_python2_7_site-packages_django_contrib_admin_util.html'
p972
sg10
S'venv/lib/python2.7/site-packages/django/contrib/admin/util'
p973
sg12
g13
(g14
g15
NtRp974
(dp975
g18
I1
sg19
I0
sg20
I284
sg21
I0
sg22
I0
sg23
I239
sg24
I0
sbssg25
S'\xe2\x1d\xd3\t\xf0\x88\xb8\xe7^\x15\x17\xd4A_U\xaa'
p976
ssS'venv_lib_python2_7_site-packages_django_utils_baseconv'
p977
(dp978
g6
(dp979
g8
S'venv_lib_python2_7_site-packages_django_utils_baseconv.html'
p980
sg10
S'venv/lib/python2.7/site-packages/django/utils/baseconv'
p981
sg12
g13
(g14
g15
NtRp982
(dp983
g18
I1
sg19
I0
sg20
I48
sg21
I0
sg22
I0
sg23
I25
sg24
I0
sbssg25
S'\x10o\xe0R\x15\xc8\xd3.&\xfa\xd7"k\xbf\xa1Z'
p984
ssS'venv_lib_python2_7_site-packages_django_utils_dateparse'
p985
(dp986
g6
(dp987
g38
S'venv_lib_python2_7_site-packages_django_utils_dateparse.html'
p988
sg40
S'venv/lib/python2.7/site-packages/django/utils/dateparse'
p989
sg42
g13
(g14
g15
NtRp990
(dp991
g18
I1
sg19
I0
sg20
I38
sg21
I0
sg22
I0
sg23
I16
sg24
I0
sbssg25
S'\xc0\x05\xc08\x9c\x17\xc7*\xbeJ\xff\x9b.\xfeS\xe3'
p992
ssS'venv_lib_python2_7_site-packages_south_migration___init__'
p993
(dp994
g6
(dp995
g8
S'venv_lib_python2_7_site-packages_south_migration___init__.html'
p996
sg10
S'venv/lib/python2.7/site-packages/south/migration/__init__'
p997
sg12
g13
(g14
g15
NtRp998
(dp999
g18
I1
sg19
I0
sg20
I157
sg21
I0
sg22
I0
sg23
I133
sg24
I0
sbssg25
S'\xa8w\xcan\x92^\x1c\xe3\xcegW\x87\x9a\x1f\xa8\x8a'
p1000
ssS'venv_lib_python2_7_site-packages_django_contrib_auth_forms'
p1001
(dp1002
g6
(dp1003
g8
S'venv_lib_python2_7_site-packages_django_contrib_auth_forms.html'
p1004
sg10
S'venv/lib/python2.7/site-packages/django/contrib/auth/forms'
p1005
sg12
g13
(g14
g15
NtRp1006
(dp1007
g18
I1
sg19
I0
sg20
I184
sg21
I0
sg22
I0
sg23
I104
sg24
I0
sbssg25
S'_Q\xad?\x18\x1bg\xbfK\xe8tE\xdb\x9dl\xaa'
p1008
ssS'kybsal_contact_models'
p1009
(dp1010
g6
(dp1011
g8
S'kybsal_contact_models.html'
p1012
sg10
S'kybsal/contact/models'
p1013
sg12
g13
(g14
g15
NtRp1014
(dp1015
g18
I1
sg19
I0
sg20
I10
sg21
I0
sg22
I0
sg23
I1
sg24
I0
sbssg25
S'\x82\x19\x16{T\x1f\xc3-\x16\xcc\xf5B\xf4~\xe68'
p1016
ssS'venv_lib_python2_7_site-packages_south_utils___init__'
p1017
(dp1018
g6
(dp1019
g8
S'venv_lib_python2_7_site-packages_south_utils___init__.html'
p1020
sg10
S'venv/lib/python2.7/site-packages/south/utils/__init__'
p1021
sg12
g13
(g14
g15
NtRp1022
(dp1023
g18
I1
sg19
I0
sg20
I38
sg21
I0
sg22
I0
sg23
I12
sg24
I0
sbssg25
S'\xcd\xdf\x86\xc1\x99Q\x06\x1d\x9d,\x0f=\x88\\\xe1\x7f'
p1024
ssS'venv_lib_python2_7_site-packages_django_views___init__'
p1025
(dp1026
g6
(dp1027
g8
S'venv_lib_python2_7_site-packages_django_views___init__.html'
p1028
sg10
S'venv/lib/python2.7/site-packages/django/views/__init__'
p1029
sg12
g13
(g14
g15
NtRp1030
(dp1031
g18
I1
sg19
I0
sg20
I0
sg21
I0
sg22
I0
sg23
I0
sg24
I0
sbssg25
S'\xca\xf5\x9f\x7f\x88\xdfa\x831|T\x1d\xbc}\xa5v'
p1032
ssS'venv_lib_python2_7_site-packages_django_db_backends_sqlite3_client'
p1033
(dp1034
g6
(dp1035
g8
S'venv_lib_python2_7_site-packages_django_db_backends_sqlite3_client.html'
p1036
sg10
S'venv/lib/python2.7/site-packages/django/db/backends/sqlite3/client'
p1037
sg12
g13
(g14
g15
NtRp1038
(dp1039
g18
I1
sg19
I0
sg20
I10
sg21
I0
sg22
I0
sg23
I4
sg24
I0
sbssg25
S'\xecNW\x0c\xbeK#\xf0U\xd9l\xa9e\x8f\xb5\xff'
p1040
ssS'venv_lib_python2_7_site-packages_django_utils_importlib'
p1041
(dp1042
g6
(dp1043
g8
S'venv_lib_python2_7_site-packages_django_utils_importlib.html'
p1044
sg10
S'venv/lib/python2.7/site-packages/django/utils/importlib'
p1045
sg12
g13
(g14
g15
NtRp1046
(dp1047
g18
I1
sg19
I0
sg20
I26
sg21
I0
sg22
I0
sg23
I7
sg24
I0
sbssg25
S"g\xa7\xbe' \x98\x16\x85\xd4\xd4[\xbd\xd0\xd6\xd2\xd1"
p1048
ssS'venv_lib_python2_7_site-packages_django_utils_version'
p1049
(dp1050
g6
(dp1051
g8
S'venv_lib_python2_7_site-packages_django_utils_version.html'
p1052
sg10
S'venv/lib/python2.7/site-packages/django/utils/version'
p1053
sg12
g13
(g14
g15
NtRp1054
(dp1055
g18
I1
sg19
I0
sg20
I29
sg21
I0
sg22
I0
sg23
I15
sg24
I0
sbssg25
S'(\xf2@\x12{\x98\xeb\xf0L\x9ct\xec\x05Ap('
p1056
ssS'venv_lib_python2_7_site-packages_django_core_mail___init__'
p1057
(dp1058
g6
(dp1059
g8
S'venv_lib_python2_7_site-packages_django_core_mail___init__.html'
p1060
sg10
S'venv/lib/python2.7/site-packages/django/core/mail/__init__'
p1061
sg12
g13
(g14
g15
NtRp1062
(dp1063
g18
I1
sg19
I0
sg20
I29
sg21
I0
sg22
I0
sg23
I19
sg24
I0
sbssg25
S'\xa329U/O6F\xe8A+\xba\xb3\x96~\x7f'
p1064
ssS'venv_lib_python2_7_site-packages_django_core_mail_message'
p1065
(dp1066
g6
(dp1067
g8
S'venv_lib_python2_7_site-packages_django_core_mail_message.html'
p1068
sg10
S'venv/lib/python2.7/site-packages/django/core/mail/message'
p1069
sg12
g13
(g14
g15
NtRp1070
(dp1071
g18
I1
sg19
I0
sg20
I228
sg21
I0
sg22
I0
sg23
I171
sg24
I0
sbssg25
S'b4\xba\xbb\x94\x9b\xbc\xa0Bs!}N\x87\xc3\xe7'
p1072
ssS'venv_lib_python2_7_site-packages_django_contrib_sites___init__'
p1073
(dp1074
g6
(dp1075
g8
S'venv_lib_python2_7_site-packages_django_contrib_sites___init__.html'
p1076
sg10
S'venv/lib/python2.7/site-packages/django/contrib/sites/__init__'
p1077
sg12
g13
(g14
g15
NtRp1078
(dp1079
g18
I1
sg19
I0
sg20
I0
sg21
I0
sg22
I0
sg23
I0
sg24
I0
sbssg25
S'\xca\xf5\x9f\x7f\x88\xdfa\x831|T\x1d\xbc}\xa5v'
p1080
ssS'venv_lib_python2_7_site-packages_pytz_tzfile'
p1081
(dp1082
g6
(dp1083
g745
S'venv_lib_python2_7_site-packages_pytz_tzfile.html'
p1084
sg747
S'venv/lib/python2.7/site-packages/pytz/tzfile'
p1085
sg749
g13
(g14
g15
NtRp1086
(dp1087
g18
I1
sg19
I0
sg20
I81
sg21
I0
sg22
I0
sg23
I18
sg24
I0
sbssg25
S'h\x82\xb88\xde\x05|\x98(XrC\x95\t\xfc\x1d'
p1088
ssS'venv_lib_python2_7_site-packages_south___init__'
p1089
(dp1090
g6
(dp1091
g8
S'venv_lib_python2_7_site-packages_south___init__.html'
p1092
sg10
S'venv/lib/python2.7/site-packages/south/__init__'
p1093
sg12
g13
(g14
g15
NtRp1094
(dp1095
g18
I1
sg19
I0
sg20
I2
sg21
I0
sg22
I0
sg23
I0
sg24
I0
sbssg25
S'\xe0\xf5\x82{\xf5\xb7%\x8c$\x9e\x81%\xf6p\xe5$'
p1096
ssS'venv_lib_python2_7_site-packages_django_contrib_staticfiles_models'
p1097
(dp1098
g6
(dp1099
g8
S'venv_lib_python2_7_site-packages_django_contrib_staticfiles_models.html'
p1100
sg10
S'venv/lib/python2.7/site-packages/django/contrib/staticfiles/models'
p1101
sg12
g13
(g14
g15
NtRp1102
(dp1103
g18
I1
sg19
I0
sg20
I0
sg21
I0
sg22
I0
sg23
I0
sg24
I0
sbssg25
S'\xca\xf5\x9f\x7f\x88\xdfa\x831|T\x1d\xbc}\xa5v'
p1104
ssS'venv_lib_python2_7_site-packages_django_test_client'
p1105
(dp1106
g6
(dp1107
g38
S'venv_lib_python2_7_site-packages_django_test_client.html'
p1108
sg40
S'venv/lib/python2.7/site-packages/django/test/client'
p1109
sg42
g13
(g14
g15
NtRp1110
(dp1111
g18
I1
sg19
I0
sg20
I301
sg21
I0
sg22
I0
sg23
I223
sg24
I0
sbssg25
S'\xa6\xb8\x8e\x0b\x0e\x13\xd8\xc0>?+\x1fIi\x9c\x9d'
p1112
ssS'venv_lib_python2_7_site-packages_django_contrib_messages_constants'
p1113
(dp1114
g6
(dp1115
g8
S'venv_lib_python2_7_site-packages_django_contrib_messages_constants.html'
p1116
sg10
S'venv/lib/python2.7/site-packages/django/contrib/messages/constants'
p1117
sg12
g13
(g14
g15
NtRp1118
(dp1119
g18
I1
sg19
I0
sg20
I6
sg21
I0
sg22
I0
sg23
I0
sg24
I0
sbssg25
S'\x99u\x1fZpQ\xa3b\x8f# l\x06w\xe1\xdb'
p1120
ssS'venv_lib_python2_7_site-packages_django_views_decorators_cache'
p1121
(dp1122
g6
(dp1123
g8
S'venv_lib_python2_7_site-packages_django_views_decorators_cache.html'
p1124
sg10
S'venv/lib/python2.7/site-packages/django/views/decorators/cache'
p1125
sg12
g13
(g14
g15
NtRp1126
(dp1127
g18
I1
sg19
I0
sg20
I27
sg21
I0
sg22
I0
sg23
I18
sg24
I0
sbssg25
S'\x8b\x83\xe0\xbd5]\x8b\xdc\xa3\x02i\xc0\xf4\x95\xbe\xaa'
p1128
ssS'venv_lib_python2_7_site-packages_django_contrib_sessions_exceptions'
p1129
(dp1130
g6
(dp1131
g8
S'venv_lib_python2_7_site-packages_django_contrib_sessions_exceptions.html'
p1132
sg10
S'venv/lib/python2.7/site-packages/django/contrib/sessions/exceptions'
p1133
sg12
g13
(g14
g15
NtRp1134
(dp1135
g18
I1
sg19
I0
sg20
I5
sg21
I0
sg22
I0
sg23
I0
sg24
I0
sbssg25
S'\x95\x04\x01\x10c\xc83\xdaB\xb8qa\xe6[c\xd8'
p1136
ssS'venv_lib_python2_7_site-packages_django_core_serializers_base'
p1137
(dp1138
g6
(dp1139
g8
S'venv_lib_python2_7_site-packages_django_core_serializers_base.html'
p1140
sg10
S'venv/lib/python2.7/site-packages/django/core/serializers/base'
p1141
sg12
g13
(g14
g15
NtRp1142
(dp1143
g18
I1
sg19
I0
sg20
I76
sg21
I0
sg22
I0
sg23
I49
sg24
I0
sbssg25
S'\x84CF\xb2\xa8\x0et\x81]\x8c+\x81* X\x08'
p1144
ssS'venv_lib_python2_7_site-packages_django_utils_timesince'
p1145
(dp1146
g6
(dp1147
g8
S'venv_lib_python2_7_site-packages_django_utils_timesince.html'
p1148
sg10
S'venv/lib/python2.7/site-packages/django/utils/timesince'
p1149
sg12
g13
(g14
g15
NtRp1150
(dp1151
g18
I1
sg19
I0
sg20
I30
sg21
I0
sg22
I0
sg23
I23
sg24
I0
sbssg25
S'\xa2]\xb6\x8b\x16\xc6\xbaB\xa7\x06\xa5\xb2\x8a,E\xdc'
p1152
ssS'manage'
p1153
(dp1154
g6
(dp1155
g8
S'manage.html'
p1156
sg10
g1153
sg12
g13
(g14
g15
NtRp1157
(dp1158
g18
I1
sg19
I0
sg20
I6
sg21
I0
sg22
I0
sg23
I0
sg24
I0
sbssg25
S'\xd2\xf7?i\x02\xb1\xe2\xa0J`\xcb\x9d!\xedC`'
p1159
ssS'venv_lib_python2_7_site-packages_django_utils_deprecation'
p1160
(dp1161
g6
(dp1162
g8
S'venv_lib_python2_7_site-packages_django_utils_deprecation.html'
p1163
sg10
S'venv/lib/python2.7/site-packages/django/utils/deprecation'
p1164
sg12
g13
(g14
g15
NtRp1165
(dp1166
g18
I1
sg19
I0
sg20
I33
sg21
I0
sg22
I0
sg23
I5
sg24
I0
sbssg25
S'\xeb\x85\x18\x9f2\xed\x0bV\xb3\xe0\xad\xf8\x03B\x94\xb1'
p1167
ssS'venv_lib_python2_7_site-packages_django_contrib_admin_widgets'
p1168
(dp1169
g6
(dp1170
g8
S'venv_lib_python2_7_site-packages_django_contrib_admin_widgets.html'
p1171
sg10
S'venv/lib/python2.7/site-packages/django/contrib/admin/widgets'
p1172
sg12
g13
(g14
g15
NtRp1173
(dp1174
g18
I1
sg19
I0
sg20
I218
sg21
I0
sg22
I0
sg23
I149
sg24
I0
sbssg25
S'\x00\xc8\xa1\xa2D\x8bvh\xb0pO3!o\xe2d'
p1175
ssS'venv_lib_python2_7_site-packages_django_utils_itercompat'
p1176
(dp1177
g6
(dp1178
g8
S'venv_lib_python2_7_site-packages_django_utils_itercompat.html'
p1179
sg10
S'venv/lib/python2.7/site-packages/django/utils/itercompat'
p1180
sg12
g13
(g14
g15
NtRp1181
(dp1182
g18
I1
sg19
I0
sg20
I17
sg21
I0
sg22
I0
sg23
I5
sg24
I0
sbssg25
S'\x19\xe0#`\\\x99N\xed\xb1\xb6\xad#\xb9\xd1\xb8}'
p1183
ssS'venv_lib_python2_7_site-packages_django_db_transaction'
p1184
(dp1185
g6
(dp1186
g38
S'venv_lib_python2_7_site-packages_django_db_transaction.html'
p1187
sg40
S'venv/lib/python2.7/site-packages/django/db/transaction'
p1188
sg42
g13
(g14
g15
NtRp1189
(dp1190
g18
I1
sg19
I0
sg20
I206
sg21
I0
sg22
I0
sg23
I117
sg24
I0
sbssg25
S'a\x01\xb6i\xf9\x8a\xee\x1b\\\x9a#\x8d\x16\x13\x8f\x92'
p1191
ssS'venv_lib_python2_7_site-packages_django_db_models_sql_compiler'
p1192
(dp1193
g6
(dp1194
g38
S'venv_lib_python2_7_site-packages_django_db_models_sql_compiler.html'
p1195
sg40
S'venv/lib/python2.7/site-packages/django/db/models/sql/compiler'
p1196
sg42
g13
(g14
g15
NtRp1197
(dp1198
g18
I1
sg19
I0
sg20
I679
sg21
I0
sg22
I0
sg23
I374
sg24
I0
sbssg25
S'3F\xf1\xf6\x90\x01:\x15q~.1Z<4X'
p1199
ssS'venv_lib_python2_7_site-packages_django_views_decorators___init__'
p1200
(dp1201
g6
(dp1202
g8
S'venv_lib_python2_7_site-packages_django_views_decorators___init__.html'
p1203
sg10
S'venv/lib/python2.7/site-packages/django/views/decorators/__init__'
p1204
sg12
g13
(g14
g15
NtRp1205
(dp1206
g18
I1
sg19
I0
sg20
I0
sg21
I0
sg22
I0
sg23
I0
sg24
I0
sbssg25
S'\xca\xf5\x9f\x7f\x88\xdfa\x831|T\x1d\xbc}\xa5v'
p1207
ssS'venv_lib_python2_7_site-packages_south_management_commands_test'
p1208
(dp1209
g6
(dp1210
g8
S'venv_lib_python2_7_site-packages_south_management_commands_test.html'
p1211
sg10
S'venv/lib/python2.7/site-packages/south/management/commands/test'
p1212
sg12
g13
(g14
g15
NtRp1213
(dp1214
g18
I1
sg19
I0
sg20
I6
sg21
I0
sg22
I0
sg23
I0
sg24
I0
sbssg25
S'g\xf6:\xect\xabp)\x1c\xf2\xf9q3\xcbP\xf5'
p1215
ssS'venv_lib_python2_7_site-packages_django_utils_text'
p1216
(dp1217
g6
(dp1218
g8
S'venv_lib_python2_7_site-packages_django_utils_text.html'
p1219
sg10
S'venv/lib/python2.7/site-packages/django/utils/text'
p1220
sg12
g13
(g14
g15
NtRp1221
(dp1222
g18
I1
sg19
I0
sg20
I227
sg21
I0
sg22
I0
sg23
I168
sg24
I0
sbssg25
S'Y\xf9\xda\x8e\xc7\xdeD\xe7\x12D\xe9X\xeb\xb9R\x8e'
p1223
ssS'venv_lib_python2_7_site-packages_django_utils_dates'
p1224
(dp1225
g6
(dp1226
g8
S'venv_lib_python2_7_site-packages_django_utils_dates.html'
p1227
sg10
S'venv/lib/python2.7/site-packages/django/utils/dates'
p1228
sg12
g13
(g14
g15
NtRp1229
(dp1230
g18
I1
sg19
I0
sg20
I9
sg21
I0
sg22
I0
sg23
I0
sg24
I0
sbssg25
S'\xaa\xd0\xb6\xf0{\x0b\xfe\xc2\xe5J\xa1\xe1"\xf7\xc28'
p1231
ssS'venv_lib_python2_7_site-packages_django_forms_models'
p1232
(dp1233
g6
(dp1234
g8
S'venv_lib_python2_7_site-packages_django_forms_models.html'
p1235
sg10
S'venv/lib/python2.7/site-packages/django/forms/models'
p1236
sg12
g13
(g14
g15
NtRp1237
(dp1238
g18
I1
sg19
I0
sg20
I654
sg21
I0
sg22
I0
sg23
I476
sg24
I0
sbssg25
S'\xe6\x8f\xa6\x93\x06\xf6\xffG=\xc9\x83\x99\xf1J}f'
p1239
ssS'venv_lib_python2_7_site-packages_django_db_models_fields_files'
p1240
(dp1241
g6
(dp1242
g8
S'venv_lib_python2_7_site-packages_django_db_models_fields_files.html'
p1243
sg10
S'venv/lib/python2.7/site-packages/django/db/models/fields/files'
p1244
sg12
g13
(g14
g15
NtRp1245
(dp1246
g18
I1
sg19
I0
sg20
I206
sg21
I0
sg22
I0
sg23
I138
sg24
I0
sbssg25
S':??\x1b\x108\xfc2\xfd\xeb4\xd3S\n\xe1\xdc'
p1247
ssS'venv_lib_python2_7_site-packages_django_contrib_sessions_models'
p1248
(dp1249
g6
(dp1250
g8
S'venv_lib_python2_7_site-packages_django_contrib_sessions_models.html'
p1251
sg10
S'venv/lib/python2.7/site-packages/django/contrib/sessions/models'
p1252
sg12
g13
(g14
g15
NtRp1253
(dp1254
g18
I1
sg19
I0
sg20
I23
sg21
I0
sg22
I0
sg23
I7
sg24
I0
sbssg25
S'\xc4\x88\x1f\xbd1SuJ!\xba\x0c\x17\x01d\xf9\x0e'
p1255
ssS'venv_lib_python2_7_site-packages_django_contrib_auth_tokens'
p1256
(dp1257
g6
(dp1258
g8
S'venv_lib_python2_7_site-packages_django_contrib_auth_tokens.html'
p1259
sg10
S'venv/lib/python2.7/site-packages/django/contrib/auth/tokens'
p1260
sg12
g13
(g14
g15
NtRp1261
(dp1262
g18
I1
sg19
I0
sg20
I34
sg21
I0
sg22
I0
sg23
I22
sg24
I0
sbssg25
S'\x835\x03\xf2\xc5\xc6\x97\x80%R\x92dm\xef\xba\xa5'
p1263
ssS'venv_lib_python2_7_site-packages_django_utils_http'
p1264
(dp1265
g6
(dp1266
g8
S'venv_lib_python2_7_site-packages_django_utils_http.html'
p1267
sg10
S'venv/lib/python2.7/site-packages/django/utils/http'
p1268
sg12
g13
(g14
g15
NtRp1269
(dp1270
g18
I1
sg19
I0
sg20
I130
sg21
I0
sg22
I0
sg23
I85
sg24
I0
sbssg25
S'\xac\xcaO\xb7C\x8a\x99\t\xaf\x0czj\n\xa6\xef\x00'
p1271
ssS'venv_lib_python2_7_site-packages_django_utils_safestring'
p1272
(dp1273
g6
(dp1274
g8
S'venv_lib_python2_7_site-packages_django_utils_safestring.html'
p1275
sg10
S'venv/lib/python2.7/site-packages/django/utils/safestring'
p1276
sg12
g13
(g14
g15
NtRp1277
(dp1278
g18
I1
sg19
I0
sg20
I62
sg21
I0
sg22
I0
sg23
I33
sg24
I0
sbssg25
S'w\xa7\xda2E\x9fd\xc3\xf8L\xd0Ev\r\xf7M'
p1279
ssS'venv_lib_python2_7_site-packages_django_core_management___init__'
p1280
(dp1281
g6
(dp1282
g8
S'venv_lib_python2_7_site-packages_django_core_management___init__.html'
p1283
sg10
S'venv/lib/python2.7/site-packages/django/core/management/__init__'
p1284
sg12
g13
(g14
g15
NtRp1285
(dp1286
g18
I1
sg19
I0
sg20
I185
sg21
I0
sg22
I0
sg23
I77
sg24
I0
sbssg25
S'\xff\x1e\x9a\xac\r\xc0\xdek\xf5\xaa5#\xed\xa0N\xf9'
p1287
ssS'venv_lib_python2_7_site-packages_south_management_commands___init__'
p1288
(dp1289
g6
(dp1290
g8
S'venv_lib_python2_7_site-packages_south_management_commands___init__.html'
p1291
sg10
S'venv/lib/python2.7/site-packages/south/management/commands/__init__'
p1292
sg12
g13
(g14
g15
NtRp1293
(dp1294
g18
I1
sg19
I0
sg20
I18
sg21
I0
sg22
I0
sg23
I1
sg24
I0
sbssg25
S'\xd4Nvl\x97\xa8\x08\xee\xcbl\xe7?c?\xaf\xac'
p1295
ssS'venv_lib_python2_7_site-packages_django_core_signals'
p1296
(dp1297
g6
(dp1298
g8
S'venv_lib_python2_7_site-packages_django_core_signals.html'
p1299
sg10
S'venv/lib/python2.7/site-packages/django/core/signals'
p1300
sg12
g13
(g14
g15
NtRp1301
(dp1302
g18
I1
sg19
I0
sg20
I4
sg21
I0
sg22
I0
sg23
I0
sg24
I0
sbssg25
S'\x11)\xaf\xa7<%!O_\xa5\xae\x81Dl\xa7C'
p1303
ssS'venv_lib_python2_7_site-packages_south_db_generic'
p1304
(dp1305
g6
(dp1306
g8
S'venv_lib_python2_7_site-packages_south_db_generic.html'
p1307
sg10
S'venv/lib/python2.7/site-packages/south/db/generic'
p1308
sg12
g13
(g14
g15
NtRp1309
(dp1310
g18
I1
sg19
I0
sg20
I585
sg21
I0
sg22
I0
sg23
I449
sg24
I0
sbssg25
S'h\xfe\xc2\x02?=x\xf9\x89\xa4Ys\xb3\x8d2M'
p1311
ssS'venv_lib_python2_7_site-packages_django_db_models_loading'
p1312
(dp1313
g6
(dp1314
g38
S'venv_lib_python2_7_site-packages_django_db_models_loading.html'
p1315
sg40
S'venv/lib/python2.7/site-packages/django/db/models/loading'
p1316
sg42
g13
(g14
g15
NtRp1317
(dp1318
g18
I1
sg19
I0
sg20
I152
sg21
I0
sg22
I0
sg23
I35
sg24
I0
sbssg25
S"\xb3\x9b\xa6*\xdd\x06\xde\xffk'\x93\xc3\x8ck\xe08"
p1319
ssS'kybsal_contact___init__'
p1320
(dp1321
g6
(dp1322
g8
S'kybsal_contact___init__.html'
p1323
sg10
S'kybsal/contact/__init__'
p1324
sg12
g13
(g14
g15
NtRp1325
(dp1326
g18
I1
sg19
I0
sg20
I0
sg21
I0
sg22
I0
sg23
I0
sg24
I0
sbssg25
S'\xca\xf5\x9f\x7f\x88\xdfa\x831|T\x1d\xbc}\xa5v'
p1327
ssS'venv_lib_python2_7_site-packages_django_db_models_sql___init__'
p1328
(dp1329
g6
(dp1330
g8
S'venv_lib_python2_7_site-packages_django_db_models_sql___init__.html'
p1331
sg10
S'venv/lib/python2.7/site-packages/django/db/models/sql/__init__'
p1332
sg12
g13
(g14
g15
NtRp1333
(dp1334
g18
I1
sg19
I0
sg20
I6
sg21
I0
sg22
I0
sg23
I0
sg24
I0
sbssg25
S'\x1c\xc2@\xa8\xcd9\xbe\x01;Hd+\xda.\xae\xd3'
p1335
ssS'venv_lib_python2_7_site-packages_django_contrib_admin_forms'
p1336
(dp1337
g6
(dp1338
g8
S'venv_lib_python2_7_site-packages_django_contrib_admin_forms.html'
p1339
sg10
S'venv/lib/python2.7/site-packages/django/contrib/admin/forms'
p1340
sg12
g13
(g14
g15
NtRp1341
(dp1342
g18
I1
sg19
I0
sg20
I20
sg21
I0
sg22
I0
sg23
I11
sg24
I0
sbssg25
S'`\xba\xc8\xf7\xde\xa2\xd6\nlf\x13  K\xed\x00'
p1343
ssS'venv_lib_python2_7_site-packages_django_contrib_sessions___init__'
p1344
(dp1345
g6
(dp1346
g8
S'venv_lib_python2_7_site-packages_django_contrib_sessions___init__.html'
p1347
sg10
S'venv/lib/python2.7/site-packages/django/contrib/sessions/__init__'
p1348
sg12
g13
(g14
g15
NtRp1349
(dp1350
g18
I1
sg19
I0
sg20
I0
sg21
I0
sg22
I0
sg23
I0
sg24
I0
sbssg25
S'\xca\xf5\x9f\x7f\x88\xdfa\x831|T\x1d\xbc}\xa5v'
p1351
ssS'venv_lib_python2_7_site-packages_django_db_backends_sqlite3_creation'
p1352
(dp1353
g6
(dp1354
g8
S'venv_lib_python2_7_site-packages_django_db_backends_sqlite3_creation.html'
p1355
sg10
S'venv/lib/python2.7/site-packages/django/db/backends/sqlite3/creation'
p1356
sg12
g13
(g14
g15
NtRp1357
(dp1358
g18
I1
sg19
I0
sg20
I42
sg21
I0
sg22
I0
sg23
I16
sg24
I0
sbssg25
S'(\x8c\xc8\xf8\xf7\x16}uR\xc0-\xe5\x9fh\xdf\x19'
p1359
ssS'venv_lib_python2_7_site-packages_django_contrib_sessions_backends_base'
p1360
(dp1361
g6
(dp1362
g8
S'venv_lib_python2_7_site-packages_django_contrib_sessions_backends_base.html'
p1363
sg10
S'venv/lib/python2.7/site-packages/django/contrib/sessions/backends/base'
p1364
sg12
g13
(g14
g15
NtRp1365
(dp1366
g18
I1
sg19
I0
sg20
I181
sg21
I0
sg22
I0
sg23
I120
sg24
I0
sbssg25
S'\xdc\xd8\xe1p\x92Mu\x17\xbd\xa6P\xe3cd-W'
p1367
ssS'venv_lib_python2_7_site-packages_django___init__'
p1368
(dp1369
g6
(dp1370
g8
S'venv_lib_python2_7_site-packages_django___init__.html'
p1371
sg10
S'venv/lib/python2.7/site-packages/django/__init__'
p1372
sg12
g13
(g14
g15
NtRp1373
(dp1374
g18
I1
sg19
I0
sg20
I4
sg21
I0
sg22
I0
sg23
I0
sg24
I0
sbssg25
S'\xae\xbb\x81\xcfF\xaex\xa2Es\xf5~\xee\x97[-'
p1375
ssS'venv_lib_python2_7_site-packages_django_core_files_storage'
p1376
(dp1377
g6
(dp1378
g8
S'venv_lib_python2_7_site-packages_django_core_files_storage.html'
p1379
sg10
S'venv/lib/python2.7/site-packages/django/core/files/storage'
p1380
sg12
g13
(g14
g15
NtRp1381
(dp1382
g18
I1
sg19
I0
sg20
I146
sg21
I0
sg22
I0
sg23
I100
sg24
I0
sbssg25
S'`e7\xff\x82\xaf\xd0\x0c\x98\xe1p\xaf[\xbd*\x14'
p1383
ssS'venv_lib_python2_7_site-packages_south_models'
p1384
(dp1385
g6
(dp1386
g8
S'venv_lib_python2_7_site-packages_south_models.html'
p1387
sg10
S'venv/lib/python2.7/site-packages/south/models'
p1388
sg12
g13
(g14
g15
NtRp1389
(dp1390
g18
I1
sg19
I0
sg20
I21
sg21
I0
sg22
I0
sg23
I11
sg24
I0
sbssg25
S'\xbf\xe3\xa0\\\xbc\xe3&\x0c\x07\xc7`?\xbc=\xd5\xd7'
p1391
ssS'venv_lib_python2_7_site-packages_django_db_models_signals'
p1392
(dp1393
g6
(dp1394
g8
S'venv_lib_python2_7_site-packages_django_db_models_signals.html'
p1395
sg10
S'venv/lib/python2.7/site-packages/django/db/models/signals'
p1396
sg12
g13
(g14
g15
NtRp1397
(dp1398
g18
I1
sg19
I0
sg20
I11
sg21
I0
sg22
I0
sg23
I0
sg24
I0
sbssg25
S'\x025!\xbd\xfd%\xdc\x0cD"74\xef\xfc\x9b\xa3'
p1399
ssS'venv_lib_python2_7_site-packages_south_migration_migrators'
p1400
(dp1401
g6
(dp1402
g8
S'venv_lib_python2_7_site-packages_south_migration_migrators.html'
p1403
sg10
S'venv/lib/python2.7/site-packages/south/migration/migrators'
p1404
sg12
g13
(g14
g15
NtRp1405
(dp1406
g18
I1
sg19
I0
sg20
I238
sg21
I0
sg22
I0
sg23
I170
sg24
I0
sbssg25
S'\xfb\xea\xc6\x93\xeb[\xadz~\x9c\xa8I\xd6\x8e\xb0\x89'
p1407
ssS'venv_lib_python2_7_site-packages_django_utils_six'
p1408
(dp1409
g6
(dp1410
g8
S'venv_lib_python2_7_site-packages_django_utils_six.html'
p1411
sg10
S'venv/lib/python2.7/site-packages/django/utils/six'
p1412
sg12
g13
(g14
g15
NtRp1413
(dp1414
g18
I1
sg19
I0
sg20
I346
sg21
I0
sg22
I0
sg23
I158
sg24
I0
sbssg25
S'5\xc4\x8e\xdel\x06\x9a\x9d\xa3\xf3\t\xc5\xda\xf0\x97\t'
p1415
ssS'venv_lib_python2_7_site-packages_django_utils_formats'
p1416
(dp1417
g6
(dp1418
g8
S'venv_lib_python2_7_site-packages_django_utils_formats.html'
p1419
sg10
S'venv/lib/python2.7/site-packages/django/utils/formats'
p1420
sg12
g13
(g14
g15
NtRp1421
(dp1422
g18
I1
sg19
I0
sg20
I117
sg21
I0
sg22
I0
sg23
I58
sg24
I0
sbssg25
S"{\xfdt! '\xf6Y\x98\x14\xf6\x8d\xbf\xd74\xa5"
p1423
ssS'venv_lib_python2_7_site-packages_django_contrib_sessions_backends___init__'
p1424
(dp1425
g6
(dp1426
g8
S'venv_lib_python2_7_site-packages_django_contrib_sessions_backends___init__.html'
p1427
sg10
S'venv/lib/python2.7/site-packages/django/contrib/sessions/backends/__init__'
p1428
sg12
g13
(g14
g15
NtRp1429
(dp1430
g18
I1
sg19
I0
sg20
I0
sg21
I0
sg22
I0
sg23
I0
sg24
I0
sbssg25
S'\xca\xf5\x9f\x7f\x88\xdfa\x831|T\x1d\xbc}\xa5v'
p1431
ssS'venv_lib_python2_7_site-packages_django_contrib_contenttypes_views'
p1432
(dp1433
g6
(dp1434
g8
S'venv_lib_python2_7_site-packages_django_contrib_contenttypes_views.html'
p1435
sg10
S'venv/lib/python2.7/site-packages/django/contrib/contenttypes/views'
p1436
sg12
g13
(g14
g15
NtRp1437
(dp1438
g18
I1
sg19
I0
sg20
I50
sg21
I0
sg22
I0
sg23
I43
sg24
I0
sbssg25
S'\xe4\x81W%\xa6\xc9,\xa9jV%,\xc5\x89\x0c\x17'
p1439
ssS'venv_lib_python2_7_site-packages_django_db_models_base'
p1440
(dp1441
g6
(dp1442
g38
S'venv_lib_python2_7_site-packages_django_db_models_base.html'
p1443
sg40
S'venv/lib/python2.7/site-packages/django/db/models/base'
p1444
sg42
g13
(g14
g15
NtRp1445
(dp1446
g18
I1
sg19
I0
sg20
I559
sg21
I0
sg22
I0
sg23
I323
sg24
I0
sbssg25
S'\xac\xcb\xca\xeey\x13ad,KGP\x1d?\xfe\x16'
p1447
ssS'venv_lib_python2_7_site-packages_django_utils_regex_helper'
p1448
(dp1449
g6
(dp1450
g8
S'venv_lib_python2_7_site-packages_django_utils_regex_helper.html'
p1451
sg10
S'venv/lib/python2.7/site-packages/django/utils/regex_helper'
p1452
sg12
g13
(g14
g15
NtRp1453
(dp1454
g18
I1
sg19
I0
sg20
I188
sg21
I0
sg22
I0
sg23
I175
sg24
I0
sbssg25
S'\xc4\x88\xec\xef\xc8$3\xf7\x95\xc4\x86\x1a?\x06\x7f7'
p1455
ssS'venv_lib_python2_7_site-packages_django_utils_termcolors'
p1456
(dp1457
g6
(dp1458
g8
S'venv_lib_python2_7_site-packages_django_utils_termcolors.html'
p1459
sg10
S'venv/lib/python2.7/site-packages/django/utils/termcolors'
p1460
sg12
g13
(g14
g15
NtRp1461
(dp1462
g18
I1
sg19
I0
sg20
I57
sg21
I0
sg22
I0
sg23
I40
sg24
I0
sbssg25
S'\xd7\xa8,\x9e\xfa\xda\xaf\t8h\xcf\xbc+^\x06\xa0'
p1463
ssS'venv_lib_python2_7_site-packages_django_contrib_admin_validation'
p1464
(dp1465
g6
(dp1466
g8
S'venv_lib_python2_7_site-packages_django_contrib_admin_validation.html'
p1467
sg10
S'venv/lib/python2.7/site-packages/django/contrib/admin/validation'
p1468
sg12
g13
(g14
g15
NtRp1469
(dp1470
g18
I1
sg19
I0
sg20
I254
sg21
I0
sg22
I0
sg23
I209
sg24
I0
sbssg25
S'\xe83\x90\x100+\x1f#\xce\xa0\xfc\xd0o\xb4\r\xa2'
p1471
ssS'venv_lib_python2_7_site-packages_django_core_management_commands_test'
p1472
(dp1473
g6
(dp1474
g8
S'venv_lib_python2_7_site-packages_django_core_management_commands_test.html'
p1475
sg10
S'venv/lib/python2.7/site-packages/django/core/management/commands/test'
p1476
sg12
g13
(g14
g15
NtRp1477
(dp1478
g18
I1
sg19
I0
sg20
I46
sg21
I0
sg22
I0
sg23
I5
sg24
I0
sbssg25
S'\xf2\n\xec\xc8\xb0M>\xa5\xf6\xb4MQ\xb2\xf0\x80W'
p1479
ssS'venv_lib_python2_7_site-packages_django_template_base'
p1480
(dp1481
g6
(dp1482
g8
S'venv_lib_python2_7_site-packages_django_template_base.html'
p1483
sg10
S'venv/lib/python2.7/site-packages/django/template/base'
p1484
sg12
g13
(g14
g15
NtRp1485
(dp1486
g18
I1
sg19
I0
sg20
I787
sg21
I0
sg22
I0
sg23
I569
sg24
I0
sbssg25
S'*\n\xd3\x1ar\xe9q\xb4\x94z&$\xa33b\xce'
p1487
ssS'venv_lib_python2_7_site-packages_south_orm'
p1488
(dp1489
g6
(dp1490
g8
S'venv_lib_python2_7_site-packages_south_orm.html'
p1491
sg10
S'venv/lib/python2.7/site-packages/south/orm'
p1492
sg12
g13
(g14
g15
NtRp1493
(dp1494
g18
I1
sg19
I0
sg20
I209
sg21
I0
sg22
I0
sg23
I176
sg24
I0
sbssg25
S'\xaa\xc5\xb7c\x87\x91\x15\x7f\x9c\xd6\x16\xbf\xc9\xe5N\xe2'
p1495
ssS'venv_lib_python2_7_site-packages_django_db_models___init__'
p1496
(dp1497
g6
(dp1498
g8
S'venv_lib_python2_7_site-packages_django_db_models___init__.html'
p1499
sg10
S'venv/lib/python2.7/site-packages/django/db/models/__init__'
p1500
sg12
g13
(g14
g15
NtRp1501
(dp1502
g18
I1
sg19
I0
sg20
I20
sg21
I0
sg22
I0
sg23
I5
sg24
I0
sbssg25
S'$\x11\xda\x17=\xa2D\xbd\xbe2M{\xcd\xcb\xe9\xe7'
p1503
ssS'venv_lib_python2_7_site-packages_django_conf_locale_en_formats'
p1504
(dp1505
g6
(dp1506
g8
S'venv_lib_python2_7_site-packages_django_conf_locale_en_formats.html'
p1507
sg10
S'venv/lib/python2.7/site-packages/django/conf/locale/en/formats'
p1508
sg12
g13
(g14
g15
NtRp1509
(dp1510
g18
I1
sg19
I0
sg20
I14
sg21
I0
sg22
I0
sg23
I0
sg24
I0
sbssg25
S'\x177\xa3\xb10\xbb?\x8e\xfd\x1bj\xf8\xf8\xe3D\xe0'
p1511
ssS'venv_lib_python2_7_site-packages_django_core_servers_basehttp'
p1512
(dp1513
g6
(dp1514
g8
S'venv_lib_python2_7_site-packages_django_core_servers_basehttp.html'
p1515
sg10
S'venv/lib/python2.7/site-packages/django/core/servers/basehttp'
p1516
sg12
g13
(g14
g15
NtRp1517
(dp1518
g18
I1
sg19
I0
sg20
I89
sg21
I0
sg22
I0
sg23
I59
sg24
I0
sbssg25
S'\xeb\xd2X,\xd9\x941\xde7\x1e\xc6x\xbf\x11!\x1c'
p1519
ssS'venv_lib_python2_7_site-packages_django_db_utils'
p1520
(dp1521
g6
(dp1522
g38
S'venv_lib_python2_7_site-packages_django_db_utils.html'
p1523
sg40
S'venv/lib/python2.7/site-packages/django/db/utils'
p1524
sg42
g13
(g14
g15
NtRp1525
(dp1526
g18
I1
sg19
I0
sg20
I172
sg21
I0
sg22
I0
sg23
I57
sg24
I0
sbssg25
S'w\xee\xdc\xa7\xcf\xad\xc4\x7f6\x05b1\xe8W\xae5'
p1527
ssS'venv_lib_python2_7_site-packages_django_core_management_commands_syncdb'
p1528
(dp1529
g6
(dp1530
g8
S'venv_lib_python2_7_site-packages_django_core_management_commands_syncdb.html'
p1531
sg10
S'venv/lib/python2.7/site-packages/django/core/management/commands/syncdb'
p1532
sg12
g13
(g14
g15
NtRp1533
(dp1534
g18
I1
sg19
I0
sg20
I100
sg21
I0
sg22
I0
sg23
I18
sg24
I0
sbssg25
S'\xe0\xc7\xac\x19\x06\xf8\x1b\xd5\xb6 E\x95-?{k'
p1535
ssS'venv_lib_python2_7_site-packages_django_utils_unittest_util'
p1536
(dp1537
g6
(dp1538
g8
S'venv_lib_python2_7_site-packages_django_utils_unittest_util.html'
p1539
sg10
S'venv/lib/python2.7/site-packages/django/utils/unittest/util'
p1540
sg12
g13
(g14
g15
NtRp1541
(dp1542
g18
I1
sg19
I0
sg20
I74
sg21
I0
sg22
I0
sg23
I67
sg24
I0
sbssg25
S')\xb0\xd3\xe9\xb4\x86\xbf\x1f\xaaI\xefA\xbf\x9a\xd3\x99'
p1543
ssS'venv_lib_python2_7_site-packages_django_core_files_images'
p1544
(dp1545
g6
(dp1546
g8
S'venv_lib_python2_7_site-packages_django_core_files_images.html'
p1547
sg10
S'venv/lib/python2.7/site-packages/django/core/files/images'
p1548
sg12
g13
(g14
g15
NtRp1549
(dp1550
g18
I1
sg19
I0
sg20
I43
sg21
I0
sg22
I0
sg23
I34
sg24
I0
sbssg25
S'Z\xe7k\x87\x0c]\xa6@\x18@T,E\x1d\x14\x90'
p1551
ssS'venv_lib_python2_7_site-packages_django_db_models_sql_subqueries'
p1552
(dp1553
g6
(dp1554
g8
S'venv_lib_python2_7_site-packages_django_db_models_sql_subqueries.html'
p1555
sg10
S'venv/lib/python2.7/site-packages/django/db/models/sql/subqueries'
p1556
sg12
g13
(g14
g15
NtRp1557
(dp1558
g18
I1
sg19
I0
sg20
I156
sg21
I0
sg22
I0
sg23
I99
sg24
I0
sbssg25
S'\xe0\x99]K\x861q\x1a\xf7\x11\xa3}\xaf\x8f\x93^'
p1559
ssS'venv_lib_python2_7_site-packages_django_conf_locale___init__'
p1560
(dp1561
g6
(dp1562
g8
S'venv_lib_python2_7_site-packages_django_conf_locale___init__.html'
p1563
sg10
S'venv/lib/python2.7/site-packages/django/conf/locale/__init__'
p1564
sg12
g13
(g14
g15
NtRp1565
(dp1566
g18
I1
sg19
I0
sg20
I2
sg21
I0
sg22
I0
sg23
I0
sg24
I0
sbssg25
S"\xf9\xdf\t\x9c(6\xfa\xbd'\xc9\xff\xe42\x9b\x84]"
p1567
ssS'venv_lib_python2_7_site-packages_django_views_static'
p1568
(dp1569
g6
(dp1570
g8
S'venv_lib_python2_7_site-packages_django_views_static.html'
p1571
sg10
S'venv/lib/python2.7/site-packages/django/views/static'
p1572
sg12
g13
(g14
g15
NtRp1573
(dp1574
g18
I1
sg19
I0
sg20
I73
sg21
I0
sg22
I0
sg23
I57
sg24
I0
sbssg25
S'&5\x82E\x8b\xf0\xe2K\x17\xdf\x8b\x1a\xc4\xc8\xad\x83'
p1575
ssS'kybsal_timer_tests'
p1576
(dp1577
g6
(dp1578
g8
S'kybsal_timer_tests.html'
p1579
sg10
S'kybsal/timer/tests'
p1580
sg12
g13
(g14
g15
NtRp1581
(dp1582
g18
I1
sg19
I0
sg20
I1
sg21
I0
sg22
I0
sg23
I0
sg24
I0
sbssg25
S'\x18\xa2\xf7\x81\x94\xb4%\xa4\xfaT\xb8\x84>\xb2\xf3b'
p1583
ssS'venv_lib_python2_7_site-packages_django_contrib___init__'
p1584
(dp1585
g6
(dp1586
g8
S'venv_lib_python2_7_site-packages_django_contrib___init__.html'
p1587
sg10
S'venv/lib/python2.7/site-packages/django/contrib/__init__'
p1588
sg12
g13
(g14
g15
NtRp1589
(dp1590
g18
I1
sg19
I0
sg20
I0
sg21
I0
sg22
I0
sg23
I0
sg24
I0
sbssg25
S'\xca\xf5\x9f\x7f\x88\xdfa\x831|T\x1d\xbc}\xa5v'
p1591
ssS'venv_lib_python2_7_site-packages_bootstrap3___init__'
p1592
(dp1593
g6
(dp1594
g8
S'venv_lib_python2_7_site-packages_bootstrap3___init__.html'
p1595
sg10
S'venv/lib/python2.7/site-packages/bootstrap3/__init__'
p1596
sg12
g13
(g14
g15
NtRp1597
(dp1598
g18
I1
sg19
I0
sg20
I1
sg21
I0
sg22
I0
sg23
I0
sg24
I0
sbssg25
S"\xb9,\x0b\xd1\xe9\xa5\xd9\xb1\x9d'ee<D\x88\xeb"
p1599
ssS'venv_lib_python2_7_site-packages_django_template_smartif'
p1600
(dp1601
g6
(dp1602
g8
S'venv_lib_python2_7_site-packages_django_template_smartif.html'
p1603
sg10
S'venv/lib/python2.7/site-packages/django/template/smartif'
p1604
sg12
g13
(g14
g15
NtRp1605
(dp1606
g18
I1
sg19
I0
sg20
I104
sg21
I0
sg22
I0
sg23
I61
sg24
I0
sbssg25
S'\xff7VbS!ky \xa4\x05_\x8c\xef\xf6\x9a'
p1607
ssS'venv_lib_python2_7_site-packages_south_exceptions'
p1608
(dp1609
g6
(dp1610
g8
S'venv_lib_python2_7_site-packages_south_exceptions.html'
p1611
sg10
S'venv/lib/python2.7/site-packages/south/exceptions'
p1612
sg12
g13
(g14
g15
NtRp1613
(dp1614
g18
I1
sg19
I0
sg20
I99
sg21
I0
sg22
I0
sg23
I48
sg24
I0
sbssg25
S'\xb1\xc2\xa7\x95\xbdo\x0e,ap\x04\xd1iAT\x7f'
p1615
ssS'venv_lib_python2_7_site-packages_pytz_lazy'
p1616
(dp1617
g6
(dp1618
g745
S'venv_lib_python2_7_site-packages_pytz_lazy.html'
p1619
sg747
S'venv/lib/python2.7/site-packages/pytz/lazy'
p1620
sg749
g13
(g14
g15
NtRp1621
(dp1622
g18
I1
sg19
I0
sg20
I97
sg21
I0
sg22
I0
sg23
I39
sg24
I0
sbssg25
S'\x058\xdf\x83Dk\x8b+\xcc\xd5\x9f\x84 ra\x8a'
p1623
ssS'venv_lib_python2_7_site-packages_django_forms___init__'
p1624
(dp1625
g6
(dp1626
g8
S'venv_lib_python2_7_site-packages_django_forms___init__.html'
p1627
sg10
S'venv/lib/python2.7/site-packages/django/forms/__init__'
p1628
sg12
g13
(g14
g15
NtRp1629
(dp1630
g18
I1
sg19
I0
sg20
I6
sg21
I0
sg22
I0
sg23
I0
sg24
I0
sbssg25
S'\x88c<\x81\x87\x93\x07\xbe\n\x04\x10Lng\xe5\x95'
p1631
ssS'venv_lib_python2_7_site-packages_django_template_defaulttags'
p1632
(dp1633
g6
(dp1634
g8
S'venv_lib_python2_7_site-packages_django_template_defaulttags.html'
p1635
sg10
S'venv/lib/python2.7/site-packages/django/template/defaulttags'
p1636
sg12
g13
(g14
g15
NtRp1637
(dp1638
g18
I1
sg19
I0
sg20
I623
sg21
I0
sg22
I0
sg23
I500
sg24
I0
sbssg25
S'\xe0*\xad\xa3\xe5\xc7\xe1\xadP\xa1\x06@\x16\xbb.\x83'
p1639
ssS'venv_lib_python2_7_site-packages_django_contrib_admin_filters'
p1640
(dp1641
g6
(dp1642
g8
S'venv_lib_python2_7_site-packages_django_contrib_admin_filters.html'
p1643
sg10
S'venv/lib/python2.7/site-packages/django/contrib/admin/filters'
p1644
sg12
g13
(g14
g15
NtRp1645
(dp1646
g18
I1
sg19
I0
sg20
I188
sg21
I0
sg22
I0
sg23
I127
sg24
I0
sbssg25
S'$\x87%5\x9d\x94~\x14\x8d\x8f\x0f+n\xc4h\xe2'
p1647
ssS'venv_lib_python2_7_site-packages_django_db_models_query_utils'
p1648
(dp1649
g6
(dp1650
g8
S'venv_lib_python2_7_site-packages_django_db_models_query_utils.html'
p1651
sg10
S'venv/lib/python2.7/site-packages/django/db/models/query_utils'
p1652
sg12
g13
(g14
g15
NtRp1653
(dp1654
g18
I1
sg19
I0
sg20
I100
sg21
I0
sg22
I0
sg23
I72
sg24
I0
sbssg25
S'\x9cs\xd5{\xf5\x9b\xb7|;\xf4\x93\xea\xe4\x850\xc9'
p1655
ssS'venv_lib_python2_7_site-packages_django_forms_util'
p1656
(dp1657
g6
(dp1658
g8
S'venv_lib_python2_7_site-packages_django_forms_util.html'
p1659
sg10
S'venv/lib/python2.7/site-packages/django/forms/util'
p1660
sg12
g13
(g14
g15
NtRp1661
(dp1662
g18
I1
sg19
I0
sg20
I47
sg21
I0
sg22
I0
sg23
I24
sg24
I0
sbssg25
S'u~T\xed\xff\xdf\x10\xea\x0b\xc8\x97^y\x03)\x03'
p1663
ssS'venv_lib_python2_7_site-packages_south_management___init__'
p1664
(dp1665
g6
(dp1666
g8
S'venv_lib_python2_7_site-packages_south_management___init__.html'
p1667
sg10
S'venv/lib/python2.7/site-packages/south/management/__init__'
p1668
sg12
g13
(g14
g15
NtRp1669
(dp1670
g18
I1
sg19
I0
sg20
I0
sg21
I0
sg22
I0
sg23
I0
sg24
I0
sbssg25
S'\xca\xf5\x9f\x7f\x88\xdfa\x831|T\x1d\xbc}\xa5v'
p1671
ssS'venv_lib_python2_7_site-packages_django_contrib_staticfiles_handlers'
p1672
(dp1673
g6
(dp1674
g8
S'venv_lib_python2_7_site-packages_django_contrib_staticfiles_handlers.html'
p1675
sg10
S'venv/lib/python2.7/site-packages/django/contrib/staticfiles/handlers'
p1676
sg12
g13
(g14
g15
NtRp1677
(dp1678
g18
I1
sg19
I0
sg20
I41
sg21
I0
sg22
I0
sg23
I25
sg24
I0
sbssg25
S'e9\xd8\x8d\x91\xb3\x18\xb2\rj\xbd\xfe\x85\xcb*\x80'
p1679
ssS'venv_lib_python2_7_site-packages_django_db_backends_sqlite3_base'
p1680
(dp1681
g6
(dp1682
g38
S'venv_lib_python2_7_site-packages_django_db_backends_sqlite3_base.html'
p1683
sg40
S'venv/lib/python2.7/site-packages/django/db/backends/sqlite3/base'
p1684
sg42
g13
(g14
g15
NtRp1685
(dp1686
g18
I1
sg19
I0
sg20
I300
sg21
I0
sg22
I0
sg23
I143
sg24
I0
sbssg25
S'\x1a\x8b\x83\xa7\x01\xa3\xfd\x898\xd2\x97\xb12X\xdfe'
p1687
ssS'venv_lib_python2_7_site-packages_django_contrib_admin_templatetags___init__'
p1688
(dp1689
g6
(dp1690
g8
S'venv_lib_python2_7_site-packages_django_contrib_admin_templatetags___init__.html'
p1691
sg10
S'venv/lib/python2.7/site-packages/django/contrib/admin/templatetags/__init__'
p1692
sg12
g13
(g14
g15
NtRp1693
(dp1694
g18
I1
sg19
I0
sg20
I0
sg21
I0
sg22
I0
sg23
I0
sg24
I0
sbssg25
S'\xca\xf5\x9f\x7f\x88\xdfa\x831|T\x1d\xbc}\xa5v'
p1695
ssS'venv_lib_python2_7_site-packages_django_templatetags___init__'
p1696
(dp1697
g6
(dp1698
g8
S'venv_lib_python2_7_site-packages_django_templatetags___init__.html'
p1699
sg10
S'venv/lib/python2.7/site-packages/django/templatetags/__init__'
p1700
sg12
g13
(g14
g15
NtRp1701
(dp1702
g18
I1
sg19
I0
sg20
I0
sg21
I0
sg22
I0
sg23
I0
sg24
I0
sbssg25
S'\xca\xf5\x9f\x7f\x88\xdfa\x831|T\x1d\xbc}\xa5v'
p1703
ssS'venv_lib_python2_7_site-packages_django_http_cookie'
p1704
(dp1705
g6
(dp1706
g8
S'venv_lib_python2_7_site-packages_django_http_cookie.html'
p1707
sg10
S'venv/lib/python2.7/site-packages/django/http/cookie'
p1708
sg12
g13
(g14
g15
NtRp1709
(dp1710
g18
I1
sg19
I0
sg20
I53
sg21
I0
sg22
I0
sg23
I35
sg24
I0
sbssg25
S'\xfa\xea\xea`\x8b\x1fj\xea\x8a!0\xcf=%\xd8Q'
p1711
ssS'venv_lib_python2_7_site-packages_django_core_management_validation'
p1712
(dp1713
g6
(dp1714
g8
S'venv_lib_python2_7_site-packages_django_core_management_validation.html'
p1715
sg10
S'venv/lib/python2.7/site-packages/django/core/management/validation'
p1716
sg12
g13
(g14
g15
NtRp1717
(dp1718
g18
I1
sg19
I0
sg20
I253
sg21
I0
sg22
I0
sg23
I119
sg24
I0
sbssg25
S'\xdf06\x0e\xdfg\xa0\xe9\xbf\xa3\x19@=R\xcd\xf6'
p1719
ssS'venv_lib_python2_7_site-packages_django_db_models_aggregates'
p1720
(dp1721
g6
(dp1722
g8
S'venv_lib_python2_7_site-packages_django_db_models_aggregates.html'
p1723
sg10
S'venv/lib/python2.7/site-packages/django/db/models/aggregates'
p1724
sg12
g13
(g14
g15
NtRp1725
(dp1726
g18
I1
sg19
I0
sg20
I31
sg21
I0
sg22
I0
sg23
I7
sg24
I0
sbssg25
S'h1I\x13\xd4\xe9\xf2\x0fh\x1b\xb2T\x99\x9b\xba\xbd'
p1727
ssS'venv_lib_python2_7_site-packages_django_db_backends_signals'
p1728
(dp1729
g6
(dp1730
g8
S'venv_lib_python2_7_site-packages_django_db_backends_signals.html'
p1731
sg10
S'venv/lib/python2.7/site-packages/django/db/backends/signals'
p1732
sg12
g13
(g14
g15
NtRp1733
(dp1734
g18
I1
sg19
I0
sg20
I2
sg21
I0
sg22
I0
sg23
I0
sg24
I0
sbssg25
S'\xd0\x7fA\xfb\xdfoE\xbc.\x17\x18\xd7\xa5\xbf\x04\xe4'
p1735
ssS'venv_lib_python2_7_site-packages_django_contrib_admin_sites'
p1736
(dp1737
g6
(dp1738
g8
S'venv_lib_python2_7_site-packages_django_contrib_admin_sites.html'
p1739
sg10
S'venv/lib/python2.7/site-packages/django/contrib/admin/sites'
p1740
sg12
g13
(g14
g15
NtRp1741
(dp1742
g18
I1
sg19
I0
sg20
I204
sg21
I0
sg22
I0
sg23
I147
sg24
I0
sbssg25
S'\x8a\xaa;2Z\x88\xd6\x83\x92\x9b[W\x97G\xa0\x81'
p1743
ssS'venv_lib_python2_7_site-packages_django_utils_encoding'
p1744
(dp1745
g6
(dp1746
g8
S'venv_lib_python2_7_site-packages_django_utils_encoding.html'
p1747
sg10
S'venv/lib/python2.7/site-packages/django/utils/encoding'
p1748
sg12
g13
(g14
g15
NtRp1749
(dp1750
g18
I1
sg19
I0
sg20
I108
sg21
I0
sg22
I0
sg23
I43
sg24
I0
sbssg25
S'9\xda\xa9\xeeM\xa5\xcd\xd5\xceLZK.B\xc0&'
p1751
ssS'venv_lib_python2_7_site-packages_django_db_backends_util'
p1752
(dp1753
g6
(dp1754
g8
S'venv_lib_python2_7_site-packages_django_db_backends_util.html'
p1755
sg10
S'venv/lib/python2.7/site-packages/django/db/backends/util'
p1756
sg12
g13
(g14
g15
NtRp1757
(dp1758
g18
I1
sg19
I0
sg20
I110
sg21
I0
sg22
I0
sg23
I68
sg24
I0
sbssg25
S'&@\x86\xcf2\xa6\xa7\xcc\xb7Z\xcf\x05\xdc\x19[\x93'
p1759
ssS'venv_lib_python2_7_site-packages_south_db___init__'
p1760
(dp1761
g6
(dp1762
g8
S'venv_lib_python2_7_site-packages_south_db___init__.html'
p1763
sg10
S'venv/lib/python2.7/site-packages/south/db/__init__'
p1764
sg12
g13
(g14
g15
NtRp1765
(dp1766
g18
I1
sg19
I0
sg20
I24
sg21
I0
sg22
I0
sg23
I9
sg24
I0
sbssg25
S'\xad\xcf\x84$\x88\x1a\xb0m\tv.\x14\xba\xf6\x12\xc5'
p1767
ssS'venv_lib_python2_7_site-packages_south_migration_utils'
p1768
(dp1769
g6
(dp1770
g8
S'venv_lib_python2_7_site-packages_south_migration_utils.html'
p1771
sg10
S'venv/lib/python2.7/site-packages/south/migration/utils'
p1772
sg12
g13
(g14
g15
NtRp1773
(dp1774
g18
I1
sg19
I0
sg20
I61
sg21
I0
sg22
I0
sg23
I38
sg24
I0
sbssg25
S'\xe9\xe9\xdb\x86~\xcb\x9eQ\xac\xbb\xfc\xff0\xc6.!'
p1775
ssS'venv_lib_python2_7_site-packages_south_management_commands_migrate'
p1776
(dp1777
g6
(dp1778
g8
S'venv_lib_python2_7_site-packages_south_management_commands_migrate.html'
p1779
sg10
S'venv/lib/python2.7/site-packages/south/management/commands/migrate'
p1780
sg12
g13
(g14
g15
NtRp1781
(dp1782
g18
I1
sg19
I0
sg20
I126
sg21
I0
sg22
I0
sg23
I92
sg24
I0
sbssg25
S'Q\xe7\xc1\xbc33\x1c)d\x8f\x0f\xdd\xe3\x91\xbbS'
p1783
ssS'venv_lib_python2_7_site-packages_django_core_cache_backends___init__'
p1784
(dp1785
g6
(dp1786
g8
S'venv_lib_python2_7_site-packages_django_core_cache_backends___init__.html'
p1787
sg10
S'venv/lib/python2.7/site-packages/django/core/cache/backends/__init__'
p1788
sg12
g13
(g14
g15
NtRp1789
(dp1790
g18
I1
sg19
I0
sg20
I0
sg21
I0
sg22
I0
sg23
I0
sg24
I0
sbssg25
S'\xca\xf5\x9f\x7f\x88\xdfa\x831|T\x1d\xbc}\xa5v'
p1791
ssS'venv_lib_python2_7_site-packages_django_contrib_staticfiles_templatetags___init__'
p1792
(dp1793
g6
(dp1794
g8
S'venv_lib_python2_7_site-packages_django_contrib_staticfiles_templatetags___init__.html'
p1795
sg10
S'venv/lib/python2.7/site-packages/django/contrib/staticfiles/templatetags/__init__'
p1796
sg12
g13
(g14
g15
NtRp1797
(dp1798
g18
I1
sg19
I0
sg20
I0
sg21
I0
sg22
I0
sg23
I0
sg24
I0
sbssg25
S'\xca\xf5\x9f\x7f\x88\xdfa\x831|T\x1d\xbc}\xa5v'
p1799
ssS'venv_lib_python2_7_site-packages_django_template_context'
p1800
(dp1801
g6
(dp1802
g8
S'venv_lib_python2_7_site-packages_django_template_context.html'
p1803
sg10
S'venv/lib/python2.7/site-packages/django/template/context'
p1804
sg12
g13
(g14
g15
NtRp1805
(dp1806
g18
I1
sg19
I0
sg20
I104
sg21
I0
sg22
I0
sg23
I72
sg24
I0
sbssg25
S'p<;=\xee{\x17\x93\xb9\t\xb0R8r\xd2N'
p1807
ssS'venv_lib_python2_7_site-packages_django_db_models_fields_proxy'
p1808
(dp1809
g6
(dp1810
g8
S'venv_lib_python2_7_site-packages_django_db_models_fields_proxy.html'
p1811
sg10
S'venv/lib/python2.7/site-packages/django/db/models/fields/proxy'
p1812
sg12
g13
(g14
g15
NtRp1813
(dp1814
g18
I1
sg19
I0
sg20
I6
sg21
I0
sg22
I0
sg23
I3
sg24
I0
sbssg25
S'V\x13\xa3\x82& \x8au\xa8\xde\xd3\x84\xd0B\xc1\x80'
p1815
ssS'venv_lib_python2_7_site-packages_django_db_models_constants'
p1816
(dp1817
g6
(dp1818
g8
S'venv_lib_python2_7_site-packages_django_db_models_constants.html'
p1819
sg10
S'venv/lib/python2.7/site-packages/django/db/models/constants'
p1820
sg12
g13
(g14
g15
NtRp1821
(dp1822
g18
I1
sg19
I0
sg20
I1
sg21
I0
sg22
I0
sg23
I0
sg24
I0
sbssg25
S'K\x0f@\x85\xa8\x06~v\xd55D;1,\x0f\x95'
p1823
ssS'venv_lib_python2_7_site-packages_django_utils_dateformat'
p1824
(dp1825
g6
(dp1826
g8
S'venv_lib_python2_7_site-packages_django_utils_dateformat.html'
p1827
sg10
S'venv/lib/python2.7/site-packages/django/utils/dateformat'
p1828
sg12
g13
(g14
g15
NtRp1829
(dp1830
g18
I1
sg19
I0
sg20
I181
sg21
I0
sg22
I0
sg23
I119
sg24
I0
sbssg25
S'\xf2\xe4\xae\x83\xc8uL]\xa9;@\xf9-\x1e\x9b\xeb'
p1831
ssS'kybsal_spritz_models'
p1832
(dp1833
g6
(dp1834
g8
S'kybsal_spritz_models.html'
p1835
sg10
S'kybsal/spritz/models'
p1836
sg12
g13
(g14
g15
NtRp1837
(dp1838
g18
I1
sg19
I0
sg20
I11
sg21
I0
sg22
I0
sg23
I2
sg24
I0
sbssg25
S'>\x8a\xb9\x02\xde\xc1m\r\xe3\xf0\x80\xc5\xb3\x91+\xf2'
p1839
ssS'venv_lib_python2_7_site-packages_django_core_management_color'
p1840
(dp1841
g6
(dp1842
g8
S'venv_lib_python2_7_site-packages_django_core_management_color.html'
p1843
sg10
S'venv/lib/python2.7/site-packages/django/core/management/color'
p1844
sg12
g13
(g14
g15
NtRp1845
(dp1846
g18
I1
sg19
I0
sg20
I28
sg21
I0
sg22
I0
sg23
I3
sg24
I0
sbssg25
S"\x97\x1d}\xfa\xe0\xf3\xe1\x86a\x9fF'\xcf(\xb5j"
p1847
ssS'venv_lib_python2_7_site-packages_django_views_decorators_csrf'
p1848
(dp1849
g6
(dp1850
g8
S'venv_lib_python2_7_site-packages_django_views_decorators_csrf.html'
p1851
sg10
S'venv/lib/python2.7/site-packages/django/views/decorators/csrf'
p1852
sg12
g13
(g14
g15
NtRp1853
(dp1854
g18
I1
sg19
I0
sg20
I27
sg21
I0
sg22
I0
sg23
I9
sg24
I0
sbssg25
S'M\x92\xd4#8<\xf6\x8f>&\xa6\xd02m\x0e\x1d'
p1855
ssS'venv_lib_python2_7_site-packages_pytz_tzinfo'
p1856
(dp1857
g6
(dp1858
g745
S'venv_lib_python2_7_site-packages_pytz_tzinfo.html'
p1859
sg747
S'venv/lib/python2.7/site-packages/pytz/tzinfo'
p1860
sg749
g13
(g14
g15
NtRp1861
(dp1862
g18
I1
sg19
I0
sg20
I178
sg21
I0
sg22
I0
sg23
I91
sg24
I0
sbssg25
S'\x05\x9c\x1fv[\x89+\xa9\x05\xe3%\x17\xec\xd4\x1e\xda'
p1863
ssS'venv_lib_python2_7_site-packages_django_contrib_auth_management___init__'
p1864
(dp1865
g6
(dp1866
g8
S'venv_lib_python2_7_site-packages_django_contrib_auth_management___init__.html'
p1867
sg10
S'venv/lib/python2.7/site-packages/django/contrib/auth/management/__init__'
p1868
sg12
g13
(g14
g15
NtRp1869
(dp1870
g18
I1
sg19
I0
sg20
I101
sg21
I0
sg22
I0
sg23
I49
sg24
I0
sbssg25
S'\xac[[\xa7\x9f\x84\xa9\xd1\x11eL\x05+\xa9Gq'
p1871
ssS'venv_lib_python2_7_site-packages_django_core_cache_backends_base'
p1872
(dp1873
g6
(dp1874
g8
S'venv_lib_python2_7_site-packages_django_core_cache_backends_base.html'
p1875
sg10
S'venv/lib/python2.7/site-packages/django/core/cache/backends/base'
p1876
sg12
g13
(g14
g15
NtRp1877
(dp1878
g18
I1
sg19
I0
sg20
I100
sg21
I0
sg22
I0
sg23
I53
sg24
I0
sbssg25
S'\xe0\\7=N\xbb\xcb\xdc\x00c\xa9A\xc5\xe9R\xbc'
p1879
ssS'venv_lib_python2_7_site-packages_django_db_backends___init__'
p1880
(dp1881
g6
(dp1882
g38
S'venv_lib_python2_7_site-packages_django_db_backends___init__.html'
p1883
sg40
S'venv/lib/python2.7/site-packages/django/db/backends/__init__'
p1884
sg42
g13
(g14
g15
NtRp1885
(dp1886
g18
I1
sg19
I0
sg20
I548
sg21
I0
sg22
I0
sg23
I221
sg24
I0
sbssg25
S'\x10\x95\x1f\xbd\xa0J\xa9T\xf1\xa5\x89\x8b\xf5[f\xf2'
p1887
ssS'venv_lib_python2_7_site-packages_django_utils__os'
p1888
(dp1889
g6
(dp1890
g8
S'venv_lib_python2_7_site-packages_django_utils__os.html'
p1891
sg10
S'venv/lib/python2.7/site-packages/django/utils/_os'
p1892
sg12
g13
(g14
g15
NtRp1893
(dp1894
g18
I1
sg19
I0
sg20
I43
sg21
I0
sg22
I0
sg23
I22
sg24
I0
sbssg25
S'T\xce\xd3"\x1f\xc5k\x05\x92\x85\x9b\xd8v\xc8\xa6\xcf'
p1895
ssS'venv_lib_python2_7_site-packages_django_contrib_contenttypes___init__'
p1896
(dp1897
g6
(dp1898
g8
S'venv_lib_python2_7_site-packages_django_contrib_contenttypes___init__.html'
p1899
sg10
S'venv/lib/python2.7/site-packages/django/contrib/contenttypes/__init__'
p1900
sg12
g13
(g14
g15
NtRp1901
(dp1902
g18
I1
sg19
I0
sg20
I0
sg21
I0
sg22
I0
sg23
I0
sg24
I0
sbssg25
S'\xca\xf5\x9f\x7f\x88\xdfa\x831|T\x1d\xbc}\xa5v'
p1903
ssS'venv_lib_python2_7_site-packages_django_db_backends_creation'
p1904
(dp1905
g6
(dp1906
g8
S'venv_lib_python2_7_site-packages_django_db_backends_creation.html'
p1907
sg10
S'venv/lib/python2.7/site-packages/django/db/backends/creation'
p1908
sg12
g13
(g14
g15
NtRp1909
(dp1910
g18
I1
sg19
I0
sg20
I254
sg21
I0
sg22
I0
sg23
I117
sg24
I0
sbssg25
S'\x12\x06\xb9\xc4h\xb8vu\x9d 2\xce]q\x10e'
p1911
ssS'venv_lib_python2_7_site-packages_south_utils_py3'
p1912
(dp1913
g6
(dp1914
g8
S'venv_lib_python2_7_site-packages_south_utils_py3.html'
p1915
sg10
S'venv/lib/python2.7/site-packages/south/utils/py3'
p1916
sg12
g13
(g14
g15
NtRp1917
(dp1918
g18
I1
sg19
I0
sg20
I15
sg21
I0
sg22
I0
sg23
I5
sg24
I0
sbssg25
S'F\x9bt\x8d\x1cd-\x14*\x0c\x0c\xf9\x92\x8d\xb1\x15'
p1919
ssS'venv_lib_python2_7_site-packages_django_dispatch___init__'
p1920
(dp1921
g6
(dp1922
g8
S'venv_lib_python2_7_site-packages_django_dispatch___init__.html'
p1923
sg10
S'venv/lib/python2.7/site-packages/django/dispatch/__init__'
p1924
sg12
g13
(g14
g15
NtRp1925
(dp1926
g18
I1
sg19
I0
sg20
I1
sg21
I0
sg22
I0
sg23
I0
sg24
I0
sbssg25
S'\x0c\x08\x7f\xbb\x1cX\xc3a\xeb(\xac\xfd\x85h<\x9f'
p1927
ssS'venv_lib_python2_7_site-packages_django_utils_numberformat'
p1928
(dp1929
g6
(dp1930
g8
S'venv_lib_python2_7_site-packages_django_utils_numberformat.html'
p1931
sg10
S'venv/lib/python2.7/site-packages/django/utils/numberformat'
p1932
sg12
g13
(g14
g15
NtRp1933
(dp1934
g18
I1
sg19
I0
sg20
I31
sg21
I0
sg22
I0
sg23
I27
sg24
I0
sbssg25
S'\xac_\xe7\xd6\xec"\xf9\xd4B\x8c<\xe2\xd4\xc7[\x8c'
p1935
ssS'venv_lib_python2_7_site-packages_pytz___init__'
p1936
(dp1937
g6
(dp1938
g745
S'venv_lib_python2_7_site-packages_pytz___init__.html'
p1939
sg747
S'venv/lib/python2.7/site-packages/pytz/__init__'
p1940
sg749
g13
(g14
g15
NtRp1941
(dp1942
g18
I1
sg19
I0
sg20
I181
sg21
I0
sg22
I0
sg23
I87
sg24
I0
sbssg25
S'I`>z\xabA\x13d\xc2\x1b\x95+4\xa4\x9fd'
p1943
ssS'venv_lib_python2_7_site-packages_django_core_servers___init__'
p1944
(dp1945
g6
(dp1946
g8
S'venv_lib_python2_7_site-packages_django_core_servers___init__.html'
p1947
sg10
S'venv/lib/python2.7/site-packages/django/core/servers/__init__'
p1948
sg12
g13
(g14
g15
NtRp1949
(dp1950
g18
I1
sg19
I0
sg20
I0
sg21
I0
sg22
I0
sg23
I0
sg24
I0
sbssg25
S'\xca\xf5\x9f\x7f\x88\xdfa\x831|T\x1d\xbc}\xa5v'
p1951
ssS'venv_lib_python2_7_site-packages_django_utils_cache'
p1952
(dp1953
g6
(dp1954
g8
S'venv_lib_python2_7_site-packages_django_utils_cache.html'
p1955
sg10
S'venv/lib/python2.7/site-packages/django/utils/cache'
p1956
sg12
g13
(g14
g15
NtRp1957
(dp1958
g18
I1
sg19
I0
sg20
I133
sg21
I0
sg22
I0
sg23
I109
sg24
I0
sbssg25
S'\xe1\xdf\\P\xe1\xb5\xb4\xdb\xbc\xb8\xca\xa7@@N\xb6'
p1959
ssS'venv_lib_python2_7_site-packages_django_db_models_related'
p1960
(dp1961
g6
(dp1962
g8
S'venv_lib_python2_7_site-packages_django_db_models_related.html'
p1963
sg10
S'venv/lib/python2.7/site-packages/django/db/models/related'
p1964
sg12
g13
(g14
g15
NtRp1965
(dp1966
g18
I1
sg19
I0
sg20
I35
sg21
I0
sg22
I0
sg23
I13
sg24
I0
sbssg25
S'\x91\xa2\xf9\xe3\x11\xf9\x12;\x91?\xdcZ\xa9\x1a\xb0f'
p1967
ssS'venv_lib_python2_7_site-packages_django_contrib_admin_options'
p1968
(dp1969
g6
(dp1970
g8
S'venv_lib_python2_7_site-packages_django_contrib_admin_options.html'
p1971
sg10
S'venv/lib/python2.7/site-packages/django/contrib/admin/options'
p1972
sg12
g13
(g14
g15
NtRp1973
(dp1974
g18
I1
sg19
I0
sg20
I873
sg21
I0
sg22
I0
sg23
I688
sg24
I0
sbssg25
S'\x99\xb0\xfct\xedacM\xb6\xb6\xa3a\\\x19I\xc4'
p1975
ssS'venv_lib_python2_7_site-packages_south_signals'
p1976
(dp1977
g6
(dp1978
g8
S'venv_lib_python2_7_site-packages_south_signals.html'
p1979
sg10
S'venv/lib/python2.7/site-packages/south/signals'
p1980
sg12
g13
(g14
g15
NtRp1981
(dp1982
g18
I1
sg19
I0
sg20
I5
sg21
I0
sg22
I0
sg23
I0
sg24
I0
sbssg25
S'F\x80,\x1f\x0ewJ\xa6 \x9c\xd1\xad \x97Q\xbf'
p1983
ssS'venv_lib_python2_7_site-packages_django_contrib_admin___init__'
p1984
(dp1985
g6
(dp1986
g8
S'venv_lib_python2_7_site-packages_django_contrib_admin___init__.html'
p1987
sg10
S'venv/lib/python2.7/site-packages/django/contrib/admin/__init__'
p1988
sg12
g13
(g14
g15
NtRp1989
(dp1990
g18
I1
sg19
I0
sg20
I19
sg21
I0
sg22
I0
sg23
I13
sg24
I0
sbssg25
S'\xea\xe4\x0f\xb5\x0cQ9\xe6n{,\x07@\x0b\x97k'
p1991
ssS'venv_lib_python2_7_site-packages_django_core_management_commands___init__'
p1992
(dp1993
g6
(dp1994
g8
S'venv_lib_python2_7_site-packages_django_core_management_commands___init__.html'
p1995
sg10
S'venv/lib/python2.7/site-packages/django/core/management/commands/__init__'
p1996
sg12
g13
(g14
g15
NtRp1997
(dp1998
g18
I1
sg19
I0
sg20
I0
sg21
I0
sg22
I0
sg23
I0
sg24
I0
sbssg25
S'\xca\xf5\x9f\x7f\x88\xdfa\x831|T\x1d\xbc}\xa5v'
p1999
ssS'venv_lib_python2_7_site-packages_django_core_files_temp'
p2000
(dp2001
g6
(dp2002
g8
S'venv_lib_python2_7_site-packages_django_core_files_temp.html'
p2003
sg10
S'venv/lib/python2.7/site-packages/django/core/files/temp'
p2004
sg12
g13
(g14
g15
NtRp2005
(dp2006
g18
I1
sg19
I0
sg20
I30
sg21
I0
sg22
I0
sg23
I23
sg24
I0
sbssg25
S'\xacs\xd0D\xffdr\x02\xfc}\x11\xc6\xb0s\xc7\xd8'
p2007
ssS'venv_lib_python2_7_site-packages_django_contrib_staticfiles_finders'
p2008
(dp2009
g6
(dp2010
g8
S'venv_lib_python2_7_site-packages_django_contrib_staticfiles_finders.html'
p2011
sg10
S'venv/lib/python2.7/site-packages/django/contrib/staticfiles/finders'
p2012
sg12
g13
(g14
g15
NtRp2013
(dp2014
g18
I1
sg19
I0
sg20
I151
sg21
I0
sg22
I0
sg23
I113
sg24
I0
sbssg25
S':}X\xc7:&\xa9\xefJ#gA`|bE'
p2015
ssS'kybsal_timer_models'
p2016
(dp2017
g6
(dp2018
g8
S'kybsal_timer_models.html'
p2019
sg10
S'kybsal/timer/models'
p2020
sg12
g13
(g14
g15
NtRp2021
(dp2022
g18
I1
sg19
I0
sg20
I66
sg21
I0
sg22
I0
sg23
I18
sg24
I0
sbssg25
S'd?\x03\x85\xb1\xcd\x82\xc3\xe0\x9fG\xf2\xddO\xc0\xb1'
p2023
ssS'venv_lib_python2_7_site-packages_django_core_files_base'
p2024
(dp2025
g6
(dp2026
g8
S'venv_lib_python2_7_site-packages_django_core_files_base.html'
p2027
sg10
S'venv/lib/python2.7/site-packages/django/core/files/base'
p2028
sg12
g13
(g14
g15
NtRp2029
(dp2030
g18
I1
sg19
I0
sg20
I106
sg21
I0
sg22
I0
sg23
I70
sg24
I0
sbssg25
S'K\x86\x96w\xed\x98\xed\xfb\xda\xfdj\x0f\x94\xa0\x9f\xb5'
p2031
ssS'kybsal_slave_models'
p2032
(dp2033
g6
(dp2034
S'html_filename'
p2035
S'kybsal_slave_models.html'
p2036
sS'name'
p2037
S'kybsal/slave/models'
p2038
sS'nums'
p2039
g13
(g14
g15
NtRp2040
(dp2041
g18
I1
sg19
I0
sg20
I34
sg21
I0
sg22
I0
sg23
I2
sg24
I0
sbssg25
S'\xec+N<\xa7\xb7\x1d\xbc\xc1\xc1\xbc.\xeb\xf7\x91\x05'
p2042
ssS'venv_lib_python2_7_site-packages_django_core_management_commands_flush'
p2043
(dp2044
g6
(dp2045
g8
S'venv_lib_python2_7_site-packages_django_core_management_commands_flush.html'
p2046
sg10
S'venv/lib/python2.7/site-packages/django/core/management/commands/flush'
p2047
sg12
g13
(g14
g15
NtRp2048
(dp2049
g18
I1
sg19
I0
sg20
I51
sg21
I0
sg22
I0
sg23
I35
sg24
I0
sbssg25
S'\xaf6\x103\x06\xef\t\xd4\xa4Z\x9d\x84\x02\xcf5O'
p2050
ssS'venv_lib_python2_7_site-packages_django_contrib_contenttypes_management'
p2051
(dp2052
g6
(dp2053
g8
S'venv_lib_python2_7_site-packages_django_contrib_contenttypes_management.html'
p2054
sg10
S'venv/lib/python2.7/site-packages/django/contrib/contenttypes/management'
p2055
sg12
g13
(g14
g15
NtRp2056
(dp2057
g18
I1
sg19
I0
sg20
I44
sg21
I0
sg22
I0
sg23
I19
sg24
I0
sbssg25
S'\xad\xdfL\x089\xdd\xe6\x8d\xeb\xa2\xb1\xea\xf6\xd2Bz'
p2058
ssS'venv_lib_python2_7_site-packages_django_db_backends_sqlite3___init__'
p2059
(dp2060
g6
(dp2061
g8
S'venv_lib_python2_7_site-packages_django_db_backends_sqlite3___init__.html'
p2062
sg10
S'venv/lib/python2.7/site-packages/django/db/backends/sqlite3/__init__'
p2063
sg12
g13
(g14
g15
NtRp2064
(dp2065
g18
I1
sg19
I0
sg20
I0
sg21
I0
sg22
I0
sg23
I0
sg24
I0
sbssg25
S'\xca\xf5\x9f\x7f\x88\xdfa\x831|T\x1d\xbc}\xa5v'
p2066
ssS'venv_lib_python2_7_site-packages_django_contrib_auth_models'
p2067
(dp2068
g6
(dp2069
g8
S'venv_lib_python2_7_site-packages_django_contrib_auth_models.html'
p2070
sg10
S'venv/lib/python2.7/site-packages/django/contrib/auth/models'
p2071
sg12
g13
(g14
g15
NtRp2072
(dp2073
g18
I1
sg19
I0
sg20
I260
sg21
I0
sg22
I0
sg23
I116
sg24
I0
sbssg25
S'K\xf0\xeb\xca\xf9OXfI\x978G\xdb\x95\xd9\xab'
p2074
ssS'kybsal_slave_tests'
p2075
(dp2076
S'index'
p2077
(dp2078
g2035
S'kybsal_slave_tests.html'
p2079
sg2037
S'kybsal/slave/tests'
p2080
sg2039
g13
(g14
g15
NtRp2081
(dp2082
g18
I1
sg19
I0
sg20
I36
sg21
I0
sg22
I0
sg23
I0
sg24
I0
sbssS'hash'
p2083
S'8\x90\x9d\x92-$w\x90?V\x05\x1b\x0c\xa9\xb5\xed'
p2084
ssS'venv_lib_python2_7_site-packages_django_db_models_deletion'
p2085
(dp2086
g6
(dp2087
g8
S'venv_lib_python2_7_site-packages_django_db_models_deletion.html'
p2088
sg10
S'venv/lib/python2.7/site-packages/django/db/models/deletion'
p2089
sg12
g13
(g14
g15
NtRp2090
(dp2091
g18
I1
sg19
I0
sg20
I152
sg21
I0
sg22
I0
sg23
I126
sg24
I0
sbssg25
S'\x88.\xc7{\x87\xfd\x9aOD9\x9b\x90[^\xe1\xd9'
p2092
ssS'venv_lib_python2_7_site-packages_django_test_utils'
p2093
(dp2094
g6
(dp2095
g8
S'venv_lib_python2_7_site-packages_django_test_utils.html'
p2096
sg10
S'venv/lib/python2.7/site-packages/django/test/utils'
p2097
sg12
g13
(g14
g15
NtRp2098
(dp2099
g18
I1
sg19
I0
sg20
I265
sg21
I0
sg22
I0
sg23
I172
sg24
I0
sbssg25
S'\xd9\xdd\xfa\x89Z^u\x13\x0b9)\xdb[\n\xa5|'
p2100
ssS'venv_lib_python2_7_site-packages_django_core_files_move'
p2101
(dp2102
g6
(dp2103
g8
S'venv_lib_python2_7_site-packages_django_core_files_move.html'
p2104
sg10
S'venv/lib/python2.7/site-packages/django/core/files/move'
p2105
sg12
g13
(g14
g15
NtRp2106
(dp2107
g18
I1
sg19
I0
sg20
I47
sg21
I0
sg22
I0
sg23
I40
sg24
I0
sbssg25
S'u\xd5\xf9R\x96\xb4M\xdd;\r\x98\x12\xcd\x1a\tH'
p2108
ssS'venv_lib_python2_7_site-packages_django_contrib_admin_templatetags_admin_static'
p2109
(dp2110
g6
(dp2111
g8
S'venv_lib_python2_7_site-packages_django_contrib_admin_templatetags_admin_static.html'
p2112
sg10
S'venv/lib/python2.7/site-packages/django/contrib/admin/templatetags/admin_static'
p2113
sg12
g13
(g14
g15
NtRp2114
(dp2115
g18
I1
sg19
I0
sg20
I7
sg21
I0
sg22
I0
sg23
I1
sg24
I0
sbssg25
S'B\xb8!Q\xd1\xca\x98=!\xaf\xceL\x82\xcb\xa2\x01'
p2116
ssS'venv_lib_python2_7_site-packages_django_core_serializers___init__'
p2117
(dp2118
g6
(dp2119
g8
S'venv_lib_python2_7_site-packages_django_core_serializers___init__.html'
p2120
sg10
S'venv/lib/python2.7/site-packages/django/core/serializers/__init__'
p2121
sg12
g13
(g14
g15
NtRp2122
(dp2123
g18
I1
sg19
I0
sg20
I64
sg21
I0
sg22
I0
sg23
I45
sg24
I0
sbssg25
S"0Q'\x8fx)\xd2\xde\xcd],\xa4\xe2\xc7\xda\x00"
p2124
ssS'venv_lib_python2_7_site-packages_django_utils_tree'
p2125
(dp2126
g6
(dp2127
g8
S'venv_lib_python2_7_site-packages_django_utils_tree.html'
p2128
sg10
S'venv/lib/python2.7/site-packages/django/utils/tree'
p2129
sg12
g13
(g14
g15
NtRp2130
(dp2131
g18
I1
sg19
I0
sg20
I50
sg21
I0
sg22
I0
sg23
I20
sg24
I0
sbssg25
S'CJ\x83\xa4\xbcOA;\xf7\xc5r\x9b\x89\xdc\x9a\xa6'
p2132
ssS'venv_lib_python2_7_site-packages_django_db_models_sql_datastructures'
p2133
(dp2134
g6
(dp2135
g8
S'venv_lib_python2_7_site-packages_django_db_models_sql_datastructures.html'
p2136
sg10
S'venv/lib/python2.7/site-packages/django/db/models/sql/datastructures'
p2137
sg12
g13
(g14
g15
NtRp2138
(dp2139
g18
I1
sg19
I0
sg20
I34
sg21
I0
sg22
I0
sg23
I18
sg24
I0
sbssg25
S'\xa4\xc3\xb0~\n\x90 \x96\x85sR\x14r\xa8\xff\x81'
p2140
ssS'venv_lib_python2_7_site-packages_django_core_management_commands_loaddata'
p2141
(dp2142
g6
(dp2143
g8
S'venv_lib_python2_7_site-packages_django_core_management_commands_loaddata.html'
p2144
sg10
S'venv/lib/python2.7/site-packages/django/core/management/commands/loaddata'
p2145
sg12
g13
(g14
g15
NtRp2146
(dp2147
g18
I1
sg19
I0
sg20
I166
sg21
I0
sg22
I0
sg23
I130
sg24
I0
sbssg25
S'\xd8\xfd\xd6K\x95\x92\xd8\x06}\x866\xa0\xf2\xc7\r\xa5'
p2148
ssS'venv_lib_python2_7_site-packages_django_utils_datastructures'
p2149
(dp2150
g6
(dp2151
g8
S'venv_lib_python2_7_site-packages_django_utils_datastructures.html'
p2152
sg10
S'venv/lib/python2.7/site-packages/django/utils/datastructures'
p2153
sg12
g13
(g14
g15
NtRp2154
(dp2155
g18
I1
sg19
I0
sg20
I307
sg21
I0
sg22
I0
sg23
I165
sg24
I0
sbssg25
S'}\xdd\x87\xba\xee[\x0b\x14\x1f/&+3#\x84\x12'
p2156
ssS'venv_lib_python2_7_site-packages_django_core_cache___init__'
p2157
(dp2158
g6
(dp2159
g8
S'venv_lib_python2_7_site-packages_django_core_cache___init__.html'
p2160
sg10
S'venv/lib/python2.7/site-packages/django/core/cache/__init__'
p2161
sg12
g13
(g14
g15
NtRp2162
(dp2163
g18
I1
sg19
I0
sg20
I58
sg21
I0
sg22
I0
sg23
I29
sg24
I0
sbssg25
S'\xe0\xbd\xc3;\x14@\xc2T\x92\xf7\xad\xeey\xe8~\xd9'
p2164
sssS'version'
p2165
S'3.7.1'
p2166
sS'settings'
p2167
S'\x98\xa8x\xfe"r\xb5K\x98\xb1N\\\x99\x9e\xf3\xe5'
p2168
sS'format'
p2169
I1
s.